	.file	"ee_oo_scheduler.c"
__SP_H__ = 0x3e
__SP_L__ = 0x3d
__SREG__ = 0x3f
__tmp_reg__ = 0
__zero_reg__ = 1
	.text
.Ltext0:
	.cfi_sections	.debug_frame
	.section	.text.osEE_scheduler_core_rq_preempt_stk,"ax",@progbits
.global	osEE_scheduler_core_rq_preempt_stk
	.type	osEE_scheduler_core_rq_preempt_stk, @function
osEE_scheduler_core_rq_preempt_stk:
.LFB54:
	.file 1 "/home/yvonne/distance_sensor/erika/src/ee_oo_scheduler.c"
	.loc 1 232 0
	.cfi_startproc
.LVL0:
	push r16
.LCFI0:
	.cfi_def_cfa_offset 3
	.cfi_offset 16, -2
	push r17
.LCFI1:
	.cfi_def_cfa_offset 4
	.cfi_offset 17, -3
	push r28
.LCFI2:
	.cfi_def_cfa_offset 5
	.cfi_offset 28, -4
	push r29
.LCFI3:
	.cfi_def_cfa_offset 6
	.cfi_offset 29, -5
/* prologue: function */
/* frame size = 0 */
/* stack size = 4 */
.L__stack_usage = 4
	.loc 1 233 0
	movw r28,r24
	ld r26,Y
	ldd r27,Y+1
.LVL1:
	.loc 1 234 0
	movw r28,r22
	ld r30,Y
	ldd r31,Y+1
.LVL2:
	.loc 1 235 0
	adiw r26,6
	ld r28,X+
	ld r29,X
	sbiw r26,6+1
.LVL3:
	.loc 1 240 0
	sbiw r28,0
	breq .L2
	.loc 1 241 0
	ldd r24,Y+2
	ldd r25,Y+3
.LVL4:
	.loc 1 242 0
	sbiw r30,0
	breq .L8
.LBB16:
	.loc 1 244 0
	movw r28,r24
.LVL5:
	ldd r16,Y+4
	ldd r17,Y+5
.LVL6:
	.loc 1 246 0
	ldd r18,Z+2
	ldd r19,Z+3
	movw r28,r18
	ldd r20,Y+4
	ldd r21,Y+5
	.loc 1 245 0
	movw r28,r16
	ldd r19,Y+1
	movw r28,r20
	ldd r18,Y+1
	cp r19,r18
	brsh .L8
.LVL7:
	.loc 1 252 0
	ldi r18,lo8(2)
	ldi r19,0
	movw r28,r16
	rjmp .L10
.LVL8:
.L2:
.LBE16:
	.loc 1 256 0
	sbiw r30,0
	breq .L8
.LVL9:
	.loc 1 263 0
	movw r28,r24
.LVL10:
	ldd r24,Y+4
	ldd r25,Y+5
.LVL11:
	.loc 1 264 0
	movw r28,r24
.LVL12:
	ldd r20,Y+4
	ldd r21,Y+5
	ldi r18,lo8(2)
	ldi r19,0
	movw r28,r20
.LVL13:
.L10:
	std Y+3,r19
	std Y+2,r18
.LVL14:
	.loc 1 270 0
	ld r18,Z
	ldd r19,Z+1
	movw r28,r22
	std Y+1,r19
	st Y,r18
.LVL15:
.LBB17:
.LBB18:
	.loc 1 63 0
	ldd r28,Z+2
	ldd r29,Z+3
.LVL16:
	.loc 1 64 0
	ldd r20,Y+4
	ldd r21,Y+5
.LVL17:
	.loc 1 72 0
	adiw r26,6
	ld r18,X+
	ld r19,X
	sbiw r26,6+1
	std Z+1,r19
	st Z,r18
	.loc 1 74 0
	adiw r26,6+1
	st X,r31
	st -X,r30
	sbiw r26,6
	.loc 1 75 0
	st X+,r28
	st X,r29
.LBB19:
	.loc 1 80 0
	ldd r18,Y+12
.LVL18:
	.loc 1 81 0
	movw r30,r20
.LVL19:
	ldd r19,Z+1
	cp r19,r18
	brsh .L9
	.loc 1 82 0
	movw r30,r20
	std Z+1,r18
.LVL20:
	rjmp .L9
.LVL21:
.L8:
.LBE19:
.LBE18:
.LBE17:
	.loc 1 275 0
	ldi r24,0
	ldi r25,0
.LVL22:
.L9:
/* epilogue start */
	.loc 1 283 0
	pop r29
	pop r28
	pop r17
	pop r16
	ret
	.cfi_endproc
.LFE54:
	.size	osEE_scheduler_core_rq_preempt_stk, .-osEE_scheduler_core_rq_preempt_stk
	.section	.text.osEE_sn_priority_insert,"ax",@progbits
.global	osEE_sn_priority_insert
	.type	osEE_sn_priority_insert, @function
osEE_sn_priority_insert:
.LFB55:
	.loc 1 294 0
	.cfi_startproc
.LVL23:
	push r12
.LCFI4:
	.cfi_def_cfa_offset 3
	.cfi_offset 12, -2
	push r13
.LCFI5:
	.cfi_def_cfa_offset 4
	.cfi_offset 13, -3
	push r14
.LCFI6:
	.cfi_def_cfa_offset 5
	.cfi_offset 14, -4
	push r15
.LCFI7:
	.cfi_def_cfa_offset 6
	.cfi_offset 15, -5
	push r16
.LCFI8:
	.cfi_def_cfa_offset 7
	.cfi_offset 16, -6
	push r17
.LCFI9:
	.cfi_def_cfa_offset 8
	.cfi_offset 17, -7
	push r28
.LCFI10:
	.cfi_def_cfa_offset 9
	.cfi_offset 28, -8
	push r29
.LCFI11:
	.cfi_def_cfa_offset 10
	.cfi_offset 29, -9
/* prologue: function */
/* frame size = 0 */
/* stack size = 8 */
.L__stack_usage = 8
	.loc 1 295 0
	movw r28,r22
	ldd r26,Y+2
	ldd r27,Y+3
.LVL24:
	.loc 1 296 0
	adiw r26,4
	ld r30,X+
	ld r31,X
	sbiw r26,4+1
.LVL25:
	.loc 1 297 0
	cp r20,__zero_reg__
	cpc r21,__zero_reg__
	breq .L13
.LVL26:
	.loc 1 298 0
	ldd r18,Z+2
	ldd r19,Z+3
	cpi r18,2
	cpc r19,__zero_reg__
	brlo .L13
	.loc 1 297 0
	adiw r26,11
	ld r18,X
	rjmp .L14
.LVL27:
.L13:
	.loc 1 297 0 is_stmt 0 discriminator 1
	ldd r18,Z+1
.L14:
.LVL28:
	.loc 1 302 0 is_stmt 1 discriminator 3
	movw r26,r24
.LVL29:
	ld r30,X+
	ld r31,X
.LVL30:
	.loc 1 301 0 discriminator 3
	ldi r26,0
	ldi r27,0
.LVL31:
.L15:
	.loc 1 306 0
	sbiw r30,0
	breq .L18
.LBB20:
	.loc 1 308 0
	ldd r16,Z+2
	ldd r17,Z+3
.LVL32:
	.loc 1 309 0
	movw r28,r16
	ldd r12,Y+4
	ldd r13,Y+5
.LVL33:
	.loc 1 311 0
	cp r20,__zero_reg__
	cpc r21,__zero_reg__
	breq .L16
.LVL34:
	.loc 1 311 0 is_stmt 0 discriminator 1
	movw r28,r12
	ldd r14,Y+2
	ldd r15,Y+3
	ldi r29,2
	cp r14,r29
	cpc r15,__zero_reg__
	brlo .L16
	.loc 1 312 0 is_stmt 1
	movw r28,r16
	ldd r19,Y+11
.LVL35:
	rjmp .L17
.LVL36:
.L16:
	.loc 1 314 0
	movw r28,r12
	ldd r19,Y+1
.LVL37:
.L17:
	.loc 1 317 0
	cp r19,r18
	brlo .L18
.LVL38:
	.loc 1 320 0
	movw r26,r30
	ld __tmp_reg__,Z+
	ld r31,Z
	mov r30,__tmp_reg__
.LVL39:
	rjmp .L15
.LVL40:
.L18:
.LBE20:
	.loc 1 326 0
	sbiw r26,0
	breq .L20
	.loc 1 327 0
	st X+,r22
	st X,r23
	.loc 1 303 0
	ldi r24,0
	ldi r25,0
.LVL41:
	rjmp .L21
.LVL42:
.L20:
	.loc 1 329 0
	movw r26,r24
.LVL43:
	st X+,r22
	st X,r23
.LVL44:
	.loc 1 330 0
	ldi r24,lo8(1)
	ldi r25,0
.LVL45:
.L21:
	.loc 1 333 0
	movw r28,r22
	std Y+1,r31
	st Y,r30
/* epilogue start */
	.loc 1 336 0
	pop r29
	pop r28
	pop r17
	pop r16
	pop r15
	pop r14
	pop r13
	pop r12
	ret
	.cfi_endproc
.LFE55:
	.size	osEE_sn_priority_insert, .-osEE_sn_priority_insert
	.section	.text.osEE_scheduler_rq_insert,"ax",@progbits
.global	osEE_scheduler_rq_insert
	.type	osEE_scheduler_rq_insert, @function
osEE_scheduler_rq_insert:
.LFB53:
	.loc 1 216 0
	.cfi_startproc
.LVL46:
/* prologue: function */
/* frame size = 0 */
/* stack size = 0 */
.L__stack_usage = 0
	.loc 1 217 0
	movw r30,r22
	std Z+3,r21
	std Z+2,r20
	.loc 1 220 0
	ldi r20,lo8(1)
	ldi r21,0
.LVL47:
	jmp osEE_sn_priority_insert
.LVL48:
	.cfi_endproc
.LFE53:
	.size	osEE_scheduler_rq_insert, .-osEE_scheduler_rq_insert
	.section	.text.osEE_scheduler_core_pop_running,"ax",@progbits
.global	osEE_scheduler_core_pop_running
	.type	osEE_scheduler_core_pop_running, @function
osEE_scheduler_core_pop_running:
.LFB56:
	.loc 1 344 0
	.cfi_startproc
.LVL49:
	push r14
.LCFI12:
	.cfi_def_cfa_offset 3
	.cfi_offset 14, -2
	push r15
.LCFI13:
	.cfi_def_cfa_offset 4
	.cfi_offset 15, -3
	push r16
.LCFI14:
	.cfi_def_cfa_offset 5
	.cfi_offset 16, -4
	push r17
.LCFI15:
	.cfi_def_cfa_offset 6
	.cfi_offset 17, -5
	push r28
.LCFI16:
	.cfi_def_cfa_offset 7
	.cfi_offset 28, -6
	push r29
.LCFI17:
	.cfi_def_cfa_offset 8
	.cfi_offset 29, -7
/* prologue: function */
/* frame size = 0 */
/* stack size = 6 */
.L__stack_usage = 6
	movw r16,r24
	.loc 1 345 0
	movw r30,r24
	ld r28,Z
	ldd r29,Z+1
.LVL50:
	.loc 1 346 0
	ldd r14,Y+6
	ldd r15,Y+7
.LVL51:
	.loc 1 352 0
	movw r30,r14
	ld r24,Z
	ldd r25,Z+1
.LVL52:
	std Y+7,r25
	std Y+6,r24
.LVL53:
.LBB21:
	.loc 1 364 0
	movw r24,r16
.LVL54:
	call osEE_scheduler_core_rq_preempt_stk
.LVL55:
	.loc 1 366 0
	ldd r30,Y+6
	ldd r31,Y+7
.LVL56:
	.loc 1 369 0
	or r24,r25
	brne .L30
.LBB22:
	.loc 1 380 0
	sbiw r30,0
	breq .L31
	.loc 1 382 0
	ldd r24,Z+2
	ldd r25,Z+3
.LVL57:
	rjmp .L32
.LVL58:
.L31:
	.loc 1 385 0
	movw r30,r16
.LVL59:
	ldd r24,Z+4
	ldd r25,Z+5
.LVL60:
.L32:
	.loc 1 388 0
	std Y+1,r25
	st Y,r24
.LVL61:
.L30:
.LBE22:
.LBE21:
	.loc 1 400 0
	movw r24,r14
/* epilogue start */
	pop r29
	pop r28
.LVL62:
	pop r17
	pop r16
.LVL63:
	pop r15
	pop r14
.LVL64:
	ret
	.cfi_endproc
.LFE56:
	.size	osEE_scheduler_core_pop_running, .-osEE_scheduler_core_pop_running
	.text
.Letext0:
	.file 2 "/home/yvonne/Downloads/arduino-1.8.5/hardware/tools/avr/avr/include/stdint.h"
	.file 3 "/home/yvonne/distance_sensor/erika/inc/ee_platform_types.h"
	.file 4 "/home/yvonne/distance_sensor/erika/inc/ee_api_types.h"
	.file 5 "/home/yvonne/distance_sensor/erika/inc/ee_hal_internal_types.h"
	.file 6 "/home/yvonne/distance_sensor/erika/inc/ee_scheduler_types.h"
	.file 7 "/home/yvonne/distance_sensor/erika/inc/ee_kernel_types.h"
	.file 8 "/home/yvonne/distance_sensor/erika/src/ee_scheduler.h"
	.file 9 "/home/yvonne/distance_sensor/erika/src/ee_kernel.h"
	.file 10 "/home/yvonne/distance_sensor/erika/inc/ee_get_kernel_and_core.h"