	.file	"ee_oo_api_osek.c"
__SP_H__ = 0x3e
__SP_L__ = 0x3d
__SREG__ = 0x3f
__tmp_reg__ = 0
__zero_reg__ = 1
	.text
.Ltext0:
	.cfi_sections	.debug_frame
	.section	.text.DisableAllInterrupts,"ax",@progbits
.global	DisableAllInterrupts
	.type	DisableAllInterrupts, @function
DisableAllInterrupts:
.LFB52:
	.file 1 "/home/yvonne/receiver/erika/src/ee_oo_api_osek.c"
	.loc 1 67 0
	.cfi_startproc
/* prologue: function */
/* frame size = 0 */
/* stack size = 0 */
.L__stack_usage = 0
	.loc 1 69 0
	lds r30,CDB
	lds r31,CDB+1
.LVL0:
.LBB219:
.LBB220:
	.file 2 "/home/yvonne/receiver/erika/src/ee_hal_internal.h"
	.loc 2 100 0
/* #APP */
 ;  100 "/home/yvonne/receiver/erika/src/ee_hal_internal.h" 1
	cli
 ;  0 "" 2
/* #NOAPP */
.LBE220:
.LBE219:
	.loc 1 72 0
	ldd r24,Z+17
	subi r24,lo8(-(1))
	std Z+17,r24
	ret
	.cfi_endproc
.LFE52:
	.size	DisableAllInterrupts, .-DisableAllInterrupts
	.section	.text.EnableAllInterrupts,"ax",@progbits
.global	EnableAllInterrupts
	.type	EnableAllInterrupts, @function
EnableAllInterrupts:
.LFB53:
	.loc 1 81 0
	.cfi_startproc
/* prologue: function */
/* frame size = 0 */
/* stack size = 0 */
.L__stack_usage = 0
	.loc 1 88 0
	lds r30,CDB
	lds r31,CDB+1
.LVL1:
.LBB221:
.LBB222:
.LBB223:
.LBB224:
	.loc 2 111 0
	in r25,__SREG__
.LVL2:
.LBB225:
.LBB226:
	.loc 2 100 0
/* #APP */
 ;  100 "/home/yvonne/receiver/erika/src/ee_hal_internal.h" 1
	cli
 ;  0 "" 2
/* #NOAPP */
.LBE226:
.LBE225:
.LBE224:
.LBE223:
.LBE222:
.LBE221:
	.loc 1 91 0
	ldd r24,Z+17
	tst r24
	breq .L3
	.loc 1 92 0
	subi r24,lo8(-(-1))
	std Z+17,r24
.LBB227:
.LBB228:
	.loc 2 105 0
/* #APP */
 ;  105 "/home/yvonne/receiver/erika/src/ee_hal_internal.h" 1
	sei
 ;  0 "" 2
/* #NOAPP */
	ret
.L3:
.LVL3:
.LBE228:
.LBE227:
.LBB229:
.LBB230:
.LBB231:
.LBB232:
	.loc 2 118 0
	.loc 2 119 0
	out __SREG__,r25
	ret
.LBE232:
.LBE231:
.LBE230:
.LBE229:
	.cfi_endproc
.LFE53:
	.size	EnableAllInterrupts, .-EnableAllInterrupts
	.section	.text.SuspendAllInterrupts,"ax",@progbits
.global	SuspendAllInterrupts
	.type	SuspendAllInterrupts, @function
SuspendAllInterrupts:
.LFB54:
	.loc 1 104 0
	.cfi_startproc
/* prologue: function */
/* frame size = 0 */
/* stack size = 0 */
.L__stack_usage = 0
	.loc 1 106 0
	lds r30,CDB
	lds r31,CDB+1
.LVL4:
	.loc 1 108 0
	ldd r24,Z+15
	cpse r24,__zero_reg__
	rjmp .L7
.LBB233:
.LBB234:
.LBB235:
	.loc 2 111 0
	in r24,__SREG__
.LVL5:
.LBB236:
.LBB237:
	.loc 2 100 0
/* #APP */
 ;  100 "/home/yvonne/receiver/erika/src/ee_hal_internal.h" 1
	cli
 ;  0 "" 2
/* #NOAPP */
.LBE237:
.LBE236:
.LBE235:
.LBE234:
	.loc 1 110 0
	std Z+13,r24
	.loc 1 111 0
	ldd r24,Z+15
.LVL6:
	rjmp .L12
.LVL7:
.L7:
.LBE233:
	.loc 1 112 0
	cpi r24,lo8(-1)
	breq .L6
.L12:
	.loc 1 113 0
	subi r24,lo8(-(1))
	std Z+15,r24
.L6:
	ret
	.cfi_endproc
.LFE54:
	.size	SuspendAllInterrupts, .-SuspendAllInterrupts
	.section	.text.ResumeAllInterrupts,"ax",@progbits
.global	ResumeAllInterrupts
	.type	ResumeAllInterrupts, @function
ResumeAllInterrupts:
.LFB55:
	.loc 1 122 0
	.cfi_startproc
/* prologue: function */
/* frame size = 0 */
/* stack size = 0 */
.L__stack_usage = 0
	.loc 1 124 0
	lds r30,CDB
	lds r31,CDB+1
.LVL8:
	.loc 1 126 0
	ldd r24,Z+15
	tst r24
	breq .L13
	.loc 1 127 0
	subi r24,lo8(-(-1))
	std Z+15,r24
	cpse r24,__zero_reg__
	rjmp .L13
	.loc 1 128 0
	ldd r24,Z+13
.LVL9:
.LBB238:
.LBB239:
	.loc 2 118 0
	.loc 2 119 0
	out __SREG__,r24
.LVL10:
.L13:
	ret
.LBE239:
.LBE238:
	.cfi_endproc
.LFE55:
	.size	ResumeAllInterrupts, .-ResumeAllInterrupts
	.section	.text.SuspendOSInterrupts,"ax",@progbits
.global	SuspendOSInterrupts
	.type	SuspendOSInterrupts, @function
SuspendOSInterrupts:
.LFB56:
	.loc 1 138 0
	.cfi_startproc
/* prologue: function */
/* frame size = 0 */
/* stack size = 0 */
.L__stack_usage = 0
	.loc 1 140 0
	lds r30,CDB
	lds r31,CDB+1
.LVL11:
	.loc 1 142 0
	ldd r24,Z+16
	cpse r24,__zero_reg__
	rjmp .L18
.LBB240:
.LBB241:
.LBB242:
.LBB243:
	.loc 2 111 0
	in r24,__SREG__
.LVL12:
.LBB244:
.LBB245:
	.loc 2 100 0
/* #APP */
 ;  100 "/home/yvonne/receiver/erika/src/ee_hal_internal.h" 1
	cli
 ;  0 "" 2
/* #NOAPP */
.LBE245:
.LBE244:
.LBE243:
.LBE242:
.LBE241:
	.loc 1 144 0
	std Z+14,r24
	.loc 1 145 0
	ldd r24,Z+16
.LVL13:
	rjmp .L23
.LVL14:
.L18:
.LBE240:
	.loc 1 146 0
	cpi r24,lo8(-1)
	breq .L17
.L23:
	.loc 1 147 0
	subi r24,lo8(-(1))
	std Z+16,r24
.L17:
	ret
	.cfi_endproc
.LFE56:
	.size	SuspendOSInterrupts, .-SuspendOSInterrupts
	.section	.text.ResumeOSInterrupts,"ax",@progbits
.global	ResumeOSInterrupts
	.type	ResumeOSInterrupts, @function
ResumeOSInterrupts:
.LFB57:
	.loc 1 156 0
	.cfi_startproc
/* prologue: function */
/* frame size = 0 */
/* stack size = 0 */
.L__stack_usage = 0
	.loc 1 158 0
	lds r30,CDB
	lds r31,CDB+1
.LVL15:
	.loc 1 160 0
	ldd r24,Z+16
	tst r24
	breq .L24
	.loc 1 161 0
	subi r24,lo8(-(-1))
	std Z+16,r24
	cpse r24,__zero_reg__
	rjmp .L24
	.loc 1 162 0
	ldd r24,Z+14
.LVL16:
.LBB246:
.LBB247:
.LBB248:
	.loc 2 118 0
	.loc 2 119 0
	out __SREG__,r24
.LVL17:
.L24:
	ret
.LBE248:
.LBE247:
.LBE246:
	.cfi_endproc
.LFE57:
	.size	ResumeOSInterrupts, .-ResumeOSInterrupts
	.section	.text.StartOS,"ax",@progbits
.global	StartOS
	.type	StartOS, @function
StartOS:
.LFB58:
	.loc 1 172 0
	.cfi_startproc
.LVL18:
	push r16
.LCFI0:
	.cfi_def_cfa_offset 3
	.cfi_offset 16, -2
	push r17
.LCFI1:
	.cfi_def_cfa_offset 4
	.cfi_offset 17, -3
	push r28
.LCFI2:
	.cfi_def_cfa_offset 5
	.cfi_offset 28, -4
	push r29
.LCFI3:
	.cfi_def_cfa_offset 6
	.cfi_offset 29, -5
	rcall .
.LCFI4:
	.cfi_def_cfa_offset 8
	in r28,__SP_L__
	in r29,__SP_H__
.LCFI5:
	.cfi_def_cfa_register 28
/* prologue: function */
/* frame size = 2 */
/* stack size = 6 */
.L__stack_usage = 6
	.loc 1 175 0
	lds r16,CDB
	lds r17,CDB+1
.LVL19:
.LBB266:
.LBB267:
.LBB268:
.LBB269:
	.loc 2 111 0
	in r25,__SREG__
.LVL20:
.LBB270:
.LBB271:
	.loc 2 100 0
/* #APP */
 ;  100 "/home/yvonne/receiver/erika/src/ee_hal_internal.h" 1
	cli
 ;  0 "" 2
/* #NOAPP */
.LBE271:
.LBE270:
.LBE269:
.LBE268:
.LBE267:
.LBE266:
	.loc 1 180 0
	movw r30,r16
	ldd r18,Z+8
	ldd r19,Z+9
	or r18,r19
	brne .L29
	mov r18,r24
.LBB272:
.LBB273:
	.loc 2 168 0
	ldi r24,lo8(gs(osEE_atmega_intvect))
	ldi r25,hi8(gs(osEE_atmega_intvect))
.LVL21:
	std Y+2,r25
	std Y+1,r24
.LBE273:
.LBE272:
.LBB274:
	.loc 1 184 0
	lds r24,CDB+4
	lds r25,CDB+4+1
	.loc 1 205 0
	std Z+10,r18
.LVL22:
	.loc 1 281 0
	ldi r18,lo8(2)
	ldi r19,0
.LVL23:
	std Z+9,r19
	std Z+8,r18
.LBB275:
.LBB276:
	.file 3 "/home/yvonne/receiver/erika/src/ee_std_change_context.h"
	.loc 3 145 0
	movw r30,r24
	ldd r22,Z+2
	ldd r23,Z+3
	movw r20,r22
	call osEE_hal_save_ctx_and_ready2stacked
.LVL24:
.LBE276:
.LBE275:
	.loc 1 312 0
	movw r30,r16
	ldd r24,Z+8
	ldd r25,Z+9
	sbiw r24,2
	brne .L30
.LVL25:
.LBB277:
.LBB278:
	.loc 2 105 0
/* #APP */
 ;  105 "/home/yvonne/receiver/erika/src/ee_hal_internal.h" 1
	sei
 ;  0 "" 2
.LVL26:
/* #NOAPP */
.L30:
.LBE278:
.LBE277:
.LBE274:
	.loc 1 172 0
	ldi r24,0
	ldi r25,0
	rjmp .L32
.LVL27:
.L29:
.LBB279:
.LBB280:
.LBB281:
.LBB282:
	.loc 2 118 0
	.loc 2 119 0
	out __SREG__,r25
.LBE282:
.LBE281:
.LBE280:
.LBE279:
	.loc 1 326 0
	ldi r24,lo8(1)
	ldi r25,0
.LVL28:
.L32:
/* epilogue start */
	.loc 1 335 0
	pop __tmp_reg__
	pop __tmp_reg__
	pop r29
	pop r28
	pop r17
	pop r16
	ret
	.cfi_endproc
.LFE58:
	.size	StartOS, .-StartOS
	.section	.text.GetActiveApplicationMode,"ax",@progbits
.global	GetActiveApplicationMode
	.type	GetActiveApplicationMode, @function
GetActiveApplicationMode:
.LFB59:
	.loc 1 342 0
	.cfi_startproc
/* prologue: function */
/* frame size = 0 */
/* stack size = 0 */
.L__stack_usage = 0
	.loc 1 345 0
	lds r30,CDB
	lds r31,CDB+1
.LVL29:
	.loc 1 347 0
	ldd r24,Z+8
	ldd r25,Z+9
	or r24,r25
	breq .L35
	.loc 1 348 0
	ldd r24,Z+10
.LVL30:
	ret
.LVL31:
.L35:
	.loc 1 350 0
	ldi r24,lo8(-1)
.LVL32:
	.loc 1 353 0
	ret
	.cfi_endproc
.LFE59:
	.size	GetActiveApplicationMode, .-GetActiveApplicationMode
	.section	.text.ActivateTask,"ax",@progbits
.global	ActivateTask
	.type	ActivateTask, @function
ActivateTask:
.LFB60:
	.loc 1 360 0
	.cfi_startproc
.LVL33:
	push r28
.LCFI6:
	.cfi_def_cfa_offset 3
	.cfi_offset 28, -2
/* prologue: function */
/* frame size = 0 */
/* stack size = 1 */
.L__stack_usage = 1
.LVL34:
.LBB283:
.LBB284:
	.file 4 "/home/yvonne/receiver/erika/src/ee_kernel.h"
	.loc 4 179 0
	ldi r25,0
.LBE284:
.LBE283:
	.loc 1 364 0
	lds r18,KDB+6
	lds r19,KDB+6+1
	cp r24,r18
	cpc r25,r19
	brsh .L39
.LBB285:
	.loc 1 369 0
	lds r30,KDB+2
	lds r31,KDB+2+1
	lsl r24
	rol r25
.LVL35:
	add r30,r24
	adc r31,r25
	ld r20,Z
	ldd r21,Z+1
.LVL36:
	.loc 1 373 0
	movw r30,r20
	ldd r24,Z+7
	ldd r25,Z+8
	sbiw r24,2
	brsh .L39
.LBB286:
.LBB287:
.LBB288:
.LBB289:
.LBB290:
	.loc 2 111 0
	in r28,__SREG__
.LVL37:
.LBB291:
.LBB292:
	.loc 2 100 0
/* #APP */
 ;  100 "/home/yvonne/receiver/erika/src/ee_hal_internal.h" 1
	cli
 ;  0 "" 2
/* #NOAPP */
.LBE292:
.LBE291:
.LBE290:
.LBE289:
.LBE288:
.LBE287:
	.loc 1 376 0
	ldi r18,lo8(1)
	ldi r19,0
	ldi r22,lo8(CDB)
	ldi r23,hi8(CDB)
	ldi r24,lo8(KDB)
	ldi r25,hi8(KDB)
	call osEE_scheduler_task_activated
.LVL38:
.LBB293:
.LBB294:
.LBB295:
.LBB296:
	.loc 2 118 0
	.loc 2 119 0
	out __SREG__,r28
	rjmp .L37
.LVL39:
.L39:
.LBE296:
.LBE295:
.LBE294:
.LBE293:
.LBE286:
.LBE285:
	.loc 1 365 0
	ldi r24,lo8(3)
	ldi r25,0
.L37:
.LVL40:
/* epilogue start */
	.loc 1 401 0
	pop r28
	ret
	.cfi_endproc
.LFE60:
	.size	ActivateTask, .-ActivateTask
	.section	.text.ChainTask,"ax",@progbits
.global	ChainTask
	.type	ChainTask, @function
ChainTask:
.LFB61:
	.loc 1 409 0
	.cfi_startproc
.LVL41:
	push r17
.LCFI7:
	.cfi_def_cfa_offset 3
	.cfi_offset 17, -2
	push r28
.LCFI8:
	.cfi_def_cfa_offset 4
	.cfi_offset 28, -3
	push r29
.LCFI9:
	.cfi_def_cfa_offset 5
	.cfi_offset 29, -4
/* prologue: function */
/* frame size = 0 */
/* stack size = 3 */
.L__stack_usage = 3
.LVL42:
.LBB297:
.LBB298:
	.loc 4 179 0
	ldi r25,0
.LBE298:
.LBE297:
	.loc 1 413 0
	lds r18,KDB+6
	lds r19,KDB+6+1
	cp r24,r18
	cpc r25,r19
	brsh .L46
.LBB299:
	.loc 1 417 0
	lds r30,KDB+2
	lds r31,KDB+2+1
	lsl r24
	rol r25
.LVL43:
	add r30,r24
	adc r31,r25
	ld r20,Z
	ldd r21,Z+1
.LVL44:
.LBB300:
.LBB301:
	.loc 4 92 0
	lds r28,CDB
	lds r29,CDB+1
	ld r24,Y
	ldd r25,Y+1
.LBE301:
.LBE300:
	.loc 1 443 0
	movw r26,r20
	adiw r26,7
	ld r18,X+
	ld r19,X
	sbiw r26,7+1
	cpi r18,2
	cpc r19,__zero_reg__
	brsh .L46
.LBB302:
.LBB303:
.LBB304:
.LBB305:
.LBB306:
	.loc 2 111 0
	in r17,__SREG__
.LVL45:
.LBB307:
.LBB308:
	.loc 2 100 0
/* #APP */
 ;  100 "/home/yvonne/receiver/erika/src/ee_hal_internal.h" 1
	cli
 ;  0 "" 2
/* #NOAPP */
.LBE308:
.LBE307:
.LBE306:
.LBE305:
.LBE304:
.LBE303:
	.loc 1 446 0
	cp r20,r24
	cpc r21,r25
	brne .L42
	.loc 1 448 0
	adiw r26,4
	ld r30,X+
	ld r31,X
	sbiw r26,4+1
	ldi r24,lo8(5)
	ldi r25,0
	std Z+3,r25
	std Z+2,r24
.LVL46:
	rjmp .L43
.LVL47:
.L42:
	.loc 1 451 0
	ldi r18,0
	ldi r19,0
	ldi r22,lo8(CDB)
	ldi r23,hi8(CDB)
	ldi r24,lo8(KDB)
	ldi r25,hi8(KDB)
	call osEE_scheduler_task_activated
.LVL48:
	.loc 1 453 0
	sbiw r24,0
	brne .L44
.LVL49:
.L43:
	ld r30,Y
	ldd r31,Y+1
.LBB309:
.LBB310:
	.loc 3 136 0
	ldi r22,lo8(gs(osEE_scheduler_task_end))
	ldi r23,hi8(gs(osEE_scheduler_task_end))
	ldd r24,Z+2
	ldd r25,Z+3
	call osEE_hal_terminate_ctx
.LVL50:
.L44:
.LBE310:
.LBE309:
.LBB311:
.LBB312:
.LBB313:
.LBB314:
	.loc 2 118 0
	.loc 2 119 0
	out __SREG__,r17
	rjmp .L41
.LVL51:
.L46:
.LBE314:
.LBE313:
.LBE312:
.LBE311:
.LBE302:
.LBE299:
	.loc 1 414 0
	ldi r24,lo8(3)
	ldi r25,0
.L41:
.LVL52:
/* epilogue start */
	.loc 1 481 0
	pop r29
	pop r28
	pop r17
	ret
	.cfi_endproc
.LFE61:
	.size	ChainTask, .-ChainTask
	.section	.text.TerminateTask,"ax",@progbits
.global	TerminateTask
	.type	TerminateTask, @function
TerminateTask:
.LFB62:
	.loc 1 488 0
	.cfi_startproc
/* prologue: function */
/* frame size = 0 */
/* stack size = 0 */
.L__stack_usage = 0
.LVL53:
	.loc 1 495 0
	lds r30,CDB
	lds r31,CDB+1
	ld __tmp_reg__,Z+
	ld r31,Z
	mov r30,__tmp_reg__
.LVL54:
.LBB315:
.LBB316:
.LBB317:
.LBB318:
.LBB319:
	.loc 2 111 0
	in r24,__SREG__
.LBB320:
.LBB321:
	.loc 2 100 0
/* #APP */
 ;  100 "/home/yvonne/receiver/erika/src/ee_hal_internal.h" 1
	cli
 ;  0 "" 2
.LVL55:
/* #NOAPP */
.LBE321:
.LBE320:
.LBE319:
.LBE318:
.LBE317:
.LBE316:
.LBB322:
.LBB323:
	.loc 3 136 0
	ldi r22,lo8(gs(osEE_scheduler_task_end))
	ldi r23,hi8(gs(osEE_scheduler_task_end))
	ldd r24,Z+2
	ldd r25,Z+3
	call osEE_hal_terminate_ctx
.LVL56:
.LBE323:
.LBE322:
.LBE315:
	.cfi_endproc
.LFE62:
	.size	TerminateTask, .-TerminateTask
	.section	.text.Schedule,"ax",@progbits
.global	Schedule
	.type	Schedule, @function
Schedule:
.LFB63:
	.loc 1 565 0
	.cfi_startproc
	push r15
.LCFI10:
	.cfi_def_cfa_offset 3
	.cfi_offset 15, -2
	push r16
.LCFI11:
	.cfi_def_cfa_offset 4
	.cfi_offset 16, -3
	push r17
.LCFI12:
	.cfi_def_cfa_offset 5
	.cfi_offset 17, -4
	push r28
.LCFI13:
	.cfi_def_cfa_offset 6
	.cfi_offset 28, -5
	push r29
.LCFI14:
	.cfi_def_cfa_offset 7
	.cfi_offset 29, -6
/* prologue: function */
/* frame size = 0 */
/* stack size = 5 */
.L__stack_usage = 5
.LVL57:
	.loc 1 569 0
	lds r30,CDB
	lds r31,CDB+1
	ld r28,Z
	ldd r29,Z+1
.LVL58:
	.loc 1 570 0
	ldd r16,Y+4
	ldd r17,Y+5
.LVL59:
	.loc 1 579 0
	movw r30,r16
	ldd r25,Z+1
	ldd r24,Y+12
	cpse r25,r24
	rjmp .L49
.LBB324:
.LBB325:
.LBB326:
.LBB327:
.LBB328:
	.loc 2 111 0
	in r15,__SREG__
.LVL60:
.LBB329:
.LBB330:
	.loc 2 100 0
/* #APP */
 ;  100 "/home/yvonne/receiver/erika/src/ee_hal_internal.h" 1
	cli
 ;  0 "" 2
/* #NOAPP */
.LBE330:
.LBE329:
.LBE328:
.LBE327:
.LBE326:
.LBE325:
	.loc 1 585 0
	ldd r24,Y+11
	std Z+1,r24
	.loc 1 587 0
	ldi r22,lo8(CDB)
	ldi r23,hi8(CDB)
.LVL61:
	ldi r24,lo8(KDB)
	ldi r25,hi8(KDB)
	call osEE_scheduler_task_preemption_point
.LVL62:
	.loc 1 589 0
	ldd r24,Y+12
	movw r30,r16
	std Z+1,r24
.LVL63:
.LBB331:
.LBB332:
.LBB333:
.LBB334:
	.loc 2 118 0
	.loc 2 119 0
	out __SREG__,r15
.LVL64:
.L49:
.LBE334:
.LBE333:
.LBE332:
.LBE331:
.LBE324:
	.loc 1 611 0
	ldi r24,0
	ldi r25,0
/* epilogue start */
	pop r29
	pop r28
.LVL65:
	pop r17
	pop r16
.LVL66:
	pop r15
	ret
	.cfi_endproc
.LFE63:
	.size	Schedule, .-Schedule
	.section	.text.ShutdownOS,"ax",@progbits
.global	ShutdownOS
	.type	ShutdownOS, @function
ShutdownOS:
.LFB64:
	.loc 1 768 0
	.cfi_startproc
.LVL67:
/* prologue: function */
/* frame size = 0 */
/* stack size = 0 */
.L__stack_usage = 0
	movw r20,r24
	.loc 1 771 0
	lds r30,CDB
	lds r31,CDB+1
.LVL68:
.LBB335:
.LBB336:
.LBB337:
.LBB338:
	.loc 2 111 0
	in r25,__SREG__
.LVL69:
.LBB339:
.LBB340:
	.loc 2 100 0
/* #APP */
 ;  100 "/home/yvonne/receiver/erika/src/ee_hal_internal.h" 1
	cli
 ;  0 "" 2
.LVL70:
/* #NOAPP */
.LBE340:
.LBE339:
.LBE338:
.LBE337:
.LBE336:
.LBE335:
	.loc 1 775 0
	ldd r18,Z+8
	ldd r19,Z+9
	subi r18,1
	sbc r19,__zero_reg__
	cpi r18,2
	cpc r19,__zero_reg__
	brsh .L51
	.loc 1 777 0
	ldi r24,lo8(3)
	ldi r25,0
.LVL71:
	std Z+9,r25
	std Z+8,r24
.LVL72:
	.loc 1 779 0
	std Z+12,r21
	std Z+11,r20
.LBB341:
.LBB342:
	.loc 2 100 0
/* #APP */
 ;  100 "/home/yvonne/receiver/erika/src/ee_hal_internal.h" 1
	cli
 ;  0 "" 2
/* #NOAPP */
.L52:
.LBE342:
.LBE341:
	.loc 1 786 0 discriminator 1
	rjmp .L52
.LVL73:
.L51:
.LBB343:
.LBB344:
.LBB345:
.LBB346:
	.loc 2 118 0
	.loc 2 119 0
	out __SREG__,r25
.LVL74:
.LBE346:
.LBE345:
.LBE344:
.LBE343:
	.loc 1 803 0
	ldi r24,lo8(7)
	ldi r25,0
	ret
	.cfi_endproc
.LFE64:
	.size	ShutdownOS, .-ShutdownOS
	.section	.text.GetTaskID,"ax",@progbits
.global	GetTaskID
	.type	GetTaskID, @function
GetTaskID:
.LFB65:
	.loc 1 810 0
	.cfi_startproc
.LVL75:
	push r28
.LCFI15:
	.cfi_def_cfa_offset 3
	.cfi_offset 28, -2
	push r29
.LCFI16:
	.cfi_def_cfa_offset 4
	.cfi_offset 29, -3
/* prologue: function */
/* frame size = 0 */
/* stack size = 2 */
.L__stack_usage = 2
	movw r26,r24
	.loc 1 817 0
	or r24,r25
	breq .L60
.LVL76:
.LBB347:
.LBB348:
.LBB349:
	.loc 4 92 0
	lds r30,CDB
	lds r31,CDB+1
	ld r28,Z
	ldd r29,Z+1
.LBE349:
.LBE348:
	.loc 1 825 0
	ldd r24,Y+7
	ldd r25,Y+8
.LVL77:
	cpi r24,2
	cpc r25,__zero_reg__
	brlo .L62
	.loc 1 827 0
	sbiw r24,2
	brne .L61
.LVL78:
.LBB350:
	.loc 1 832 0
	ldd __tmp_reg__,Z+6
	ldd r31,Z+7
	mov r30,__tmp_reg__
.LVL79:
.L58:
.LBB351:
	.loc 1 841 0
	ld __tmp_reg__,Z+
	ld r31,Z
	mov r30,__tmp_reg__
.LVL80:
.LBE351:
	.loc 1 834 0
	sbiw r30,0
	breq .L61
.LBB352:
	.loc 1 836 0
	ldd r28,Z+2
	ldd r29,Z+3
.LVL81:
	.loc 1 837 0
	ldd r24,Y+7
	ldd r25,Y+8
	sbiw r24,2
	brsh .L58
.LVL82:
.L62:
	.loc 1 838 0
	ldd r25,Y+6
.LVL83:
	.loc 1 839 0
	rjmp .L56
.LVL84:
.L61:
.LBE352:
.LBE350:
	.loc 1 821 0
	ldi r25,lo8(-1)
.LVL85:
.L56:
	.loc 1 846 0
	st X,r25
.LVL86:
	.loc 1 847 0
	ldi r24,0
	ldi r25,0
	rjmp .L54
.LVL87:
.L60:
.LBE347:
	.loc 1 818 0
	ldi r24,lo8(14)
	ldi r25,0
.LVL88:
.L54:
/* epilogue start */
	.loc 1 867 0
	pop r29
	pop r28
	ret
	.cfi_endproc
.LFE65:
	.size	GetTaskID, .-GetTaskID
	.section	.text.GetTaskState,"ax",@progbits
.global	GetTaskState
	.type	GetTaskState, @function
GetTaskState:
.LFB66:
	.loc 1 875 0
	.cfi_startproc
.LVL89:
/* prologue: function */
/* frame size = 0 */
/* stack size = 0 */
.L__stack_usage = 0
	movw r26,r22
	.loc 1 884 0
	sbiw r26,0
	breq .L70
.LVL90:
.LBB353:
.LBB354:
	.loc 4 179 0
	ldi r25,0
.LBE354:
.LBE353:
	.loc 1 887 0
	lds r18,KDB+6
	lds r19,KDB+6+1
	cp r24,r18
	cpc r25,r19
	brsh .L71
.LVL91:
.LBB355:
	.loc 1 892 0
	lds r30,KDB+2
	lds r31,KDB+2+1
	lsl r24
	rol r25
.LVL92:
	add r30,r24
	adc r31,r25
	.loc 1 895 0
	ld __tmp_reg__,Z+
	ld r31,Z
	mov r30,__tmp_reg__
	ldd __tmp_reg__,Z+4
	ldd r31,Z+5
	mov r30,__tmp_reg__
	ldd r24,Z+2
	ldd r25,Z+3
	clr r25
	.loc 1 896 0
	cpi r24,3
	cpc r25,__zero_reg__
	brge .L65
	cpi r24,1
	cpc r25,__zero_reg__
	brge .L66
	or r24,r25
	brne .L72
	.loc 1 898 0
	st X+,__zero_reg__
	st X,__zero_reg__
	rjmp .L72
.L65:
	.loc 1 896 0
	cpi r24,3
	cpc r25,__zero_reg__
	breq .L74
	sbiw r24,6
	brge .L72
	.loc 1 909 0
	ldi r24,lo8(4)
	ldi r25,0
	rjmp .L74
.L66:
	.loc 1 902 0
	ldi r24,lo8(1)
	ldi r25,0
.L74:
	.loc 1 909 0
	st X+,r24
	st X,r25
	rjmp .L72
.LVL93:
.L70:
.LBE355:
	.loc 1 885 0
	ldi r24,lo8(14)
	ldi r25,0
.LVL94:
	ret
.LVL95:
.L71:
	.loc 1 888 0
	ldi r24,lo8(3)
	ldi r25,0
.LVL96:
	ret
.L72:
.LBB356:
	.loc 1 915 0
	ldi r24,0
	ldi r25,0
.LVL97:
.LBE356:
	.loc 1 937 0
	ret
	.cfi_endproc
.LFE66:
	.size	GetTaskState, .-GetTaskState
	.text
.Letext0:
	.file 5 "/home/yvonne/Downloads/arduino-1.8.5/hardware/tools/avr/avr/include/stdint.h"
	.file 6 "/home/yvonne/receiver/erika/inc/ee_platform_types.h"
	.file 7 "/home/yvonne/receiver/erika/inc/ee_hal_internal_types.h"
	.file 8 "/home/yvonne/receiver/erika/inc/ee_api_types.h"
	.file 9 "/home/yvonne/receiver/erika/inc/ee_scheduler_types.h"
	.file 10 "/home/yvonne/receiver/erika/inc/ee_kernel_types.h"
	.file 11 "/home/yvonne/receiver/erika/inc/ee_get_kernel_and_core.h"
	.file 12 "/home/yvonne/receiver/erika/src/ee_scheduler.h"