	.file	"ee_oo_sched_partitioned.c"
__SP_H__ = 0x3e
__SP_L__ = 0x3d
__SREG__ = 0x3f
__tmp_reg__ = 0
__zero_reg__ = 1
	.text
.Ltext0:
	.cfi_sections	.debug_frame
	.section	.text.osEE_scheduler_task_activated,"ax",@progbits
.global	osEE_scheduler_task_activated
	.type	osEE_scheduler_task_activated, @function
osEE_scheduler_task_activated:
.LFB53:
	.file 1 "/home/yvonne/receiver/erika/src/ee_oo_sched_partitioned.c"
	.loc 1 90 0
	.cfi_startproc
.LVL0:
	push r14
.LCFI0:
	.cfi_def_cfa_offset 3
	.cfi_offset 14, -2
	push r15
.LCFI1:
	.cfi_def_cfa_offset 4
	.cfi_offset 15, -3
	push r16
.LCFI2:
	.cfi_def_cfa_offset 5
	.cfi_offset 16, -4
	push r17
.LCFI3:
	.cfi_def_cfa_offset 6
	.cfi_offset 17, -5
	push r28
.LCFI4:
	.cfi_def_cfa_offset 7
	.cfi_offset 28, -6
	push r29
.LCFI5:
	.cfi_def_cfa_offset 8
	.cfi_offset 29, -7
/* prologue: function */
/* frame size = 0 */
/* stack size = 6 */
.L__stack_usage = 6
	.loc 1 93 0
	movw r26,r20
	adiw r26,4
	ld r14,X+
	ld r15,X
	sbiw r26,4+1
.LVL1:
	.loc 1 99 0
	movw r28,r14
	ld r25,Y
	adiw r26,13
	ld r24,X
.LVL2:
	cp r25,r24
	brlo .+2
	rjmp .L5
	movw r30,r22
.LBB61:
	.loc 1 101 0
	ld __tmp_reg__,Z+
	ld r31,Z
	mov r30,__tmp_reg__
.LVL3:
	.loc 1 102 0
	ld r16,Z
	ldd r17,Z+1
.LVL4:
	.loc 1 103 0
	movw r26,r16
	adiw r26,4
	ld r22,X+
	ld r23,X
	sbiw r26,4+1
.LVL5:
	.loc 1 105 0
	subi r25,lo8(-(1))
	st Y,r25
	ldd r26,Z+4
	ldd r27,Z+5
	.loc 1 121 0
	or r18,r19
	breq .L3
	.loc 1 121 0 is_stmt 0 discriminator 1
	movw r28,r22
	ldd r25,Y+1
	movw r28,r14
	ldd r24,Y+1
	cp r25,r24
	brsh .L3
.LVL6:
.LBB62:
.LBB63:
.LBB64:
	.file 2 "/home/yvonne/receiver/erika/inc/ee_scheduler_types.h"
	.loc 2 83 0 is_stmt 1
	ld r24,X+
	ld r25,X
	sbiw r26,1
	std Z+5,r25
	std Z+4,r24
.LVL7:
.LBE64:
.LBE63:
	.loc 1 132 0
	ldi r24,lo8(2)
	ldi r25,0
	movw r28,r22
	std Y+3,r25
	std Y+2,r24
	.loc 1 135 0
	adiw r26,2+1
	st X,r21
	st -X,r20
	sbiw r26,2
	.loc 1 136 0
	ldd r24,Z+6
	ldd r25,Z+7
	adiw r26,1
	st X,r25
	st -X,r24
	.loc 1 137 0
	std Z+7,r27
	std Z+6,r26
	.loc 1 138 0
	std Z+1,r21
	st Z,r20
.LVL8:
	.loc 1 145 0
	movw r22,r20
.LVL9:
	movw r24,r16
	call osEE_change_context_from_running
.LVL10:
	rjmp .L9
.LVL11:
.L3:
.LBE62:
.LBB65:
.LBB66:
	.loc 1 69 0
	movw r28,r14
	ldd r24,Y+2
	ldd r25,Y+3
	or r24,r25
	brne .L4
	.loc 1 70 0
	ldi r24,lo8(1)
	ldi r25,0
	std Y+3,r25
	std Y+2,r24
.LVL12:
.L4:
.LBB67:
.LBB68:
	.loc 2 83 0
	ld r24,X+
	ld r25,X
	sbiw r26,1
	std Z+5,r25
	std Z+4,r24
	.loc 2 84 0
	adiw r26,1
	st X,__zero_reg__
	st -X,__zero_reg__
.LBE68:
.LBE67:
	.loc 1 74 0
	movw r22,r26
.LVL13:
	movw r24,r30
	adiw r24,2
	call osEE_scheduler_rq_insert
.LVL14:
.L9:
.LBE66:
.LBE65:
	.loc 1 151 0
	ldi r24,0
	ldi r25,0
	rjmp .L2
.LVL15:
.L5:
.LBE61:
	.loc 1 154 0
	ldi r24,lo8(4)
	ldi r25,0
.LVL16:
.L2:
/* epilogue start */
	.loc 1 157 0
	pop r29
	pop r28
	pop r17
	pop r16
	pop r15
	pop r14
.LVL17:
	ret
	.cfi_endproc
.LFE53:
	.size	osEE_scheduler_task_activated, .-osEE_scheduler_task_activated
	.section	.text.osEE_scheduler_task_block_current,"ax",@progbits
.global	osEE_scheduler_task_block_current
	.type	osEE_scheduler_task_block_current, @function
osEE_scheduler_task_block_current:
.LFB54:
	.loc 1 166 0
	.cfi_startproc
.LVL18:
	push r14
.LCFI6:
	.cfi_def_cfa_offset 3
	.cfi_offset 14, -2
	push r15
.LCFI7:
	.cfi_def_cfa_offset 4
	.cfi_offset 15, -3
	push r16
.LCFI8:
	.cfi_def_cfa_offset 5
	.cfi_offset 16, -4
	push r17
.LCFI9:
	.cfi_def_cfa_offset 6
	.cfi_offset 17, -5
	push r28
.LCFI10:
	.cfi_def_cfa_offset 7
	.cfi_offset 28, -6
	push r29
.LCFI11:
	.cfi_def_cfa_offset 8
	.cfi_offset 29, -7
/* prologue: function */
/* frame size = 0 */
/* stack size = 6 */
.L__stack_usage = 6
	movw r24,r22
.LVL19:
	movw r14,r20
	.loc 1 167 0
	movw r26,r22
	ld r28,X+
	ld r29,X
.LVL20:
	.loc 1 168 0
	movw r30,r28
	ld r16,Z+
	ld r17,Z+
.LVL21:
	.loc 1 174 0
	movw r22,r30
.LVL22:
	call osEE_scheduler_core_pop_running
.LVL23:
	movw r30,r14
	std Z+1,r25
	st Z,r24
	.loc 1 176 0
	movw r26,r16
	adiw r26,4
	ld r30,X+
	ld r31,X
	sbiw r26,4+1
	ldi r24,lo8(3)
	ldi r25,0
	std Z+3,r25
	std Z+2,r24
.LVL24:
	.loc 1 181 0
	ld r24,Y
	ldd r25,Y+1
/* epilogue start */
	pop r29
	pop r28
.LVL25:
	pop r17
	pop r16
.LVL26:
	pop r15
	pop r14
.LVL27:
	ret
	.cfi_endproc
.LFE54:
	.size	osEE_scheduler_task_block_current, .-osEE_scheduler_task_block_current
	.section	.text.osEE_scheduler_task_unblocked,"ax",@progbits
.global	osEE_scheduler_task_unblocked
	.type	osEE_scheduler_task_unblocked, @function
osEE_scheduler_task_unblocked:
.LFB55:
	.loc 1 190 0
	.cfi_startproc
.LVL28:
	push r16
.LCFI12:
	.cfi_def_cfa_offset 3
	.cfi_offset 16, -2
	push r17
.LCFI13:
	.cfi_def_cfa_offset 4
	.cfi_offset 17, -3
	push r28
.LCFI14:
	.cfi_def_cfa_offset 5
	.cfi_offset 28, -4
	push r29
.LCFI15:
	.cfi_def_cfa_offset 6
	.cfi_offset 29, -5
/* prologue: function */
/* frame size = 0 */
/* stack size = 4 */
.L__stack_usage = 4
	movw r26,r20
.LVL29:
	.loc 1 195 0
	movw r30,r22
	ld r16,Z
	ldd r17,Z+1
.LVL30:
	.loc 1 197 0
	adiw r26,2
	ld r30,X+
	ld r31,X
	sbiw r26,2+1
.LVL31:
	.loc 1 199 0
	ldd r28,Z+4
	ldd r29,Z+5
.LVL32:
	.loc 1 201 0
	ldi r24,lo8(2)
	ldi r25,0
.LVL33:
	std Y+3,r25
	std Y+2,r24
	.loc 1 202 0
	ldd r24,Z+11
	std Y+1,r24
.LVL34:
	.loc 1 208 0
	movw r20,r30
.LVL35:
	movw r22,r26
.LVL36:
	movw r24,r16
	adiw r24,2
	call osEE_scheduler_rq_insert
.LVL37:
	.loc 1 211 0
	sbiw r24,1
	brne .L15
	.loc 1 213 0
	movw r26,r16
	ld r30,X+
	ld r31,X
	ldd __tmp_reg__,Z+4
	ldd r31,Z+5
	mov r30,__tmp_reg__
	.loc 1 212 0
	ldi r24,lo8(1)
.LVL38:
	ldi r25,0
	ldd r19,Y+1
	ldd r18,Z+1
	cp r18,r19
	brlo .L13
	ldi r24,0
	rjmp .L13
.LVL39:
.L15:
	.loc 1 193 0
	ldi r24,0
.LVL40:
	ldi r25,0
.LVL41:
.L13:
/* epilogue start */
	.loc 1 233 0
	pop r29
	pop r28
.LVL42:
	pop r17
	pop r16
.LVL43:
	ret
	.cfi_endproc
.LFE55:
	.size	osEE_scheduler_task_unblocked, .-osEE_scheduler_task_unblocked
	.section	.text.osEE_scheduler_task_terminated,"ax",@progbits
.global	osEE_scheduler_task_terminated
	.type	osEE_scheduler_task_terminated, @function
osEE_scheduler_task_terminated:
.LFB56:
	.loc 1 242 0
	.cfi_startproc
.LVL44:
	push r10
.LCFI16:
	.cfi_def_cfa_offset 3
	.cfi_offset 10, -2
	push r11
.LCFI17:
	.cfi_def_cfa_offset 4
	.cfi_offset 11, -3
	push r12
.LCFI18:
	.cfi_def_cfa_offset 5
	.cfi_offset 12, -4
	push r13
.LCFI19:
	.cfi_def_cfa_offset 6
	.cfi_offset 13, -5
	push r14
.LCFI20:
	.cfi_def_cfa_offset 7
	.cfi_offset 14, -6
	push r15
.LCFI21:
	.cfi_def_cfa_offset 8
	.cfi_offset 15, -7
	push r16
.LCFI22:
	.cfi_def_cfa_offset 9
	.cfi_offset 16, -8
	push r17
.LCFI23:
	.cfi_def_cfa_offset 10
	.cfi_offset 17, -9
	push r28
.LCFI24:
	.cfi_def_cfa_offset 11
	.cfi_offset 28, -10
	push r29
.LCFI25:
	.cfi_def_cfa_offset 12
	.cfi_offset 29, -11
/* prologue: function */
/* frame size = 0 */
/* stack size = 10 */
.L__stack_usage = 10
	movw r10,r22
	.loc 1 243 0
	movw r26,r22
	ld r28,X+
	ld r29,X
.LVL45:
.LBB77:
	.loc 1 251 0
	movw r30,r28
	ld r16,Z+
	ld r17,Z+
	movw r14,r30
.LVL46:
	.loc 1 253 0
	movw r26,r16
	adiw r26,4
	ld r12,X+
	ld r13,X
	sbiw r26,4+1
.LVL47:
	.loc 1 256 0
	movw r30,r20
	std Z+1,r17
	st Z,r16
	.loc 1 258 0
	movw r26,r12
	adiw r26,2
	ld r24,X+
	ld r25,X
	sbiw r26,2+1
.LVL48:
	sbiw r24,4
	brne .L17
.LBB78:
	.loc 1 261 0
	movw r22,r14
.LVL49:
	movw r24,r10
	call osEE_scheduler_core_pop_running
.LVL50:
	movw r20,r24
.LVL51:
	.loc 1 263 0
	ld r24,Y
	ldd r25,Y+1
.LVL52:
	.loc 1 267 0
	cp r16,r24
	cpc r17,r25
	breq .L18
.LVL53:
.LBB79:
.LBB80:
	.file 3 "/home/yvonne/receiver/erika/src/ee_kernel.h"
	.loc 3 117 0
	movw r26,r16
	adiw r26,4
	ld r30,X+
	ld r31,X
	sbiw r26,4+1
.LVL54:
	.loc 3 119 0
	adiw r26,11
	ld r18,X
	std Z+1,r18
	.loc 3 121 0
	ld r18,Z
	subi r18,lo8(-(-1))
	st Z,r18
	.loc 3 123 0
	cpse r18,__zero_reg__
	rjmp .L19
	.loc 3 124 0
	std Z+3,__zero_reg__
	std Z+2,__zero_reg__
	rjmp .L20
.L19:
	.loc 3 126 0
	ldi r18,lo8(1)
	ldi r19,0
	std Z+3,r19
	std Z+2,r18
	rjmp .L20
.LVL55:
.L18:
.LBE80:
.LBE79:
	.loc 1 275 0
	movw r30,r12
	ld r18,Z
	subi r18,lo8(-(-1))
	st Z,r18
.L20:
.LVL56:
.LBB81:
.LBB82:
	.loc 2 96 0
	ldd r18,Y+4
	ldd r19,Y+5
	movw r26,r20
	st X+,r18
	st X,r19
	.loc 2 97 0
	std Y+5,r21
	std Y+4,r20
	rjmp .L21
.LVL57:
.L17:
.LBE82:
.LBE81:
.LBE78:
.LBB83:
	.loc 1 282 0
	ldd r22,Y+6
	ldd r23,Y+7
.LVL58:
	.loc 1 286 0
	movw r30,r22
	ld r24,Z
	ldd r25,Z+1
	std Y+7,r25
	std Y+6,r24
	.loc 1 292 0
	movw r26,r16
	adiw r26,11
	ld r24,X
	movw r30,r12
	std Z+1,r24
	.loc 1 293 0
	ldi r24,lo8(1)
	ldi r25,0
	std Z+3,r25
	std Z+2,r24
	.loc 1 302 0
	movw r20,r16
.LVL59:
	movw r24,r14
	call osEE_scheduler_rq_insert
.LVL60:
.LBB84:
	.loc 1 306 0
	movw r22,r14
	movw r24,r10
	call osEE_scheduler_core_rq_preempt_stk
.LVL61:
	.loc 1 308 0
	or r24,r25
	brne .L22
	.loc 1 312 0
	ldd r30,Y+6
	ldd r31,Y+7
	ldd r24,Z+2
	ldd r25,Z+3
.LVL62:
	.loc 1 313 0
	std Y+1,r25
	st Y,r24
	rjmp .L21
.LVL63:
.L22:
	.loc 1 315 0
	ld r24,Y
	ldd r25,Y+1
.LVL64:
.L21:
/* epilogue start */
.LBE84:
.LBE83:
.LBE77:
	.loc 1 324 0
	pop r29
	pop r28
.LVL65:
	pop r17
	pop r16
.LVL66:
	pop r15
	pop r14
.LVL67:
	pop r13
	pop r12
.LVL68:
	pop r11
	pop r10
.LVL69:
	ret
	.cfi_endproc
.LFE56:
	.size	osEE_scheduler_task_terminated, .-osEE_scheduler_task_terminated
	.section	.text.osEE_scheduler_task_preemption_point,"ax",@progbits
.global	osEE_scheduler_task_preemption_point
	.type	osEE_scheduler_task_preemption_point, @function
osEE_scheduler_task_preemption_point:
.LFB57:
	.loc 1 332 0
	.cfi_startproc
.LVL70:
	push r28
.LCFI26:
	.cfi_def_cfa_offset 3
	.cfi_offset 28, -2
	push r29
.LCFI27:
	.cfi_def_cfa_offset 4
	.cfi_offset 29, -3
/* prologue: function */
/* frame size = 0 */
/* stack size = 2 */
.L__stack_usage = 2
	movw r24,r22
.LVL71:
	.loc 1 335 0
	movw r30,r22
	ld r28,Z
	ldd r29,Z+1
.LVL72:
	.loc 1 342 0
	movw r22,r28
.LVL73:
	subi r22,-2
	sbci r23,-1
	call osEE_scheduler_core_rq_preempt_stk
.LVL74:
	.loc 1 344 0
	sbiw r24,0
	breq .L25
.LVL75:
.LBB85:
	.loc 1 349 0
	ld r22,Y
	ldd r23,Y+1
	call osEE_change_context_from_running
.LVL76:
	.loc 1 351 0
	ldi r24,lo8(1)
	ldi r25,0
.LBE85:
	rjmp .L24
.LVL77:
.L25:
	.loc 1 354 0
	ldi r24,0
	ldi r25,0
.LVL78:
.L24:
/* epilogue start */
	.loc 1 357 0
	pop r29
	pop r28
.LVL79:
	ret
	.cfi_endproc
.LFE57:
	.size	osEE_scheduler_task_preemption_point, .-osEE_scheduler_task_preemption_point
	.section	.text.osEE_scheduler_task_set_running,"ax",@progbits
.global	osEE_scheduler_task_set_running
	.type	osEE_scheduler_task_set_running, @function
osEE_scheduler_task_set_running:
.LFB58:
	.loc 1 366 0
	.cfi_startproc
.LVL80:
	push r28
.LCFI28:
	.cfi_def_cfa_offset 3
	.cfi_offset 28, -2
	push r29
.LCFI29:
	.cfi_def_cfa_offset 4
	.cfi_offset 29, -3
/* prologue: function */
/* frame size = 0 */
/* stack size = 2 */
.L__stack_usage = 2
	.loc 1 367 0
	movw r26,r22
	ld r30,X+
	ld r31,X
.LVL81:
	.loc 1 368 0
	ld r24,Z
	ldd r25,Z+1
.LVL82:
	.loc 1 370 0
	ldd r18,Z+6
	ldd r19,Z+7
.LVL83:
	.loc 1 372 0
	movw r28,r24
	ldd r26,Y+4
	ldd r27,Y+5
	ldi r22,lo8(2)
	ldi r23,0
.LVL84:
	adiw r26,2+1
	st X,r23
	st -X,r22
	sbiw r26,2
	.loc 1 373 0
	std Z+1,r21
	st Z,r20
.LVL85:
.LBB86:
.LBB87:
	.loc 2 82 0
	ldd r26,Z+4
	ldd r27,Z+5
.LVL86:
	.loc 2 83 0
	ld r22,X+
	ld r23,X
	sbiw r26,1
	std Z+5,r23
	std Z+4,r22
.LBE87:
.LBE86:
	.loc 1 379 0
	std Z+7,r27
	std Z+6,r26
.LVL87:
	.loc 1 383 0
	adiw r26,2+1
	st X,r21
	st -X,r20
	sbiw r26,2
	.loc 1 384 0
	st X+,r18
	st X,r19
	.loc 1 386 0
	movw r22,r20
/* epilogue start */
	.loc 1 387 0
	pop r29
	pop r28
	.loc 1 386 0
	jmp osEE_change_context_from_running
.LVL88:
	.cfi_endproc
.LFE58:
	.size	osEE_scheduler_task_set_running, .-osEE_scheduler_task_set_running
	.text
.Letext0:
	.file 4 "/home/yvonne/Downloads/arduino-1.8.5/hardware/tools/avr/avr/include/stdint.h"
	.file 5 "/home/yvonne/receiver/erika/inc/ee_platform_types.h"
	.file 6 "/home/yvonne/receiver/erika/inc/ee_api_types.h"
	.file 7 "/home/yvonne/receiver/erika/inc/ee_hal_internal_types.h"
	.file 8 "/home/yvonne/receiver/erika/inc/ee_kernel_types.h"
	.file 9 "/home/yvonne/receiver/erika/src/ee_scheduler.h"
	.file 10 "/home/yvonne/receiver/erika/inc/ee_get_kernel_and_core.h"