	.file	"ee_oo_sched_entry_points.c"
__SP_H__ = 0x3e
__SP_L__ = 0x3d
__SREG__ = 0x3f
__tmp_reg__ = 0
__zero_reg__ = 1
	.text
.Ltext0:
	.cfi_sections	.debug_frame
	.section	.text.osEE_scheduler_task_end,"ax",@progbits
.global	osEE_scheduler_task_end
	.type	osEE_scheduler_task_end, @function
osEE_scheduler_task_end:
.LFB53:
	.file 1 "/home/yvonne/receiver/erika/src/ee_oo_sched_entry_points.c"
	.loc 1 74 0
	.cfi_startproc
	push r28
.LCFI0:
	.cfi_def_cfa_offset 3
	.cfi_offset 28, -2
	push r29
.LCFI1:
	.cfi_def_cfa_offset 4
	.cfi_offset 29, -3
	rcall .
.LCFI2:
	.cfi_def_cfa_offset 6
	in r28,__SP_L__
	in r29,__SP_H__
.LCFI3:
	.cfi_def_cfa_register 28
/* prologue: function */
/* frame size = 2 */
/* stack size = 4 */
.L__stack_usage = 4
	.loc 1 78 0
	movw r20,r28
	subi r20,-1
	sbci r21,-1
	ldi r22,lo8(CDB)
	ldi r23,hi8(CDB)
	ldi r24,lo8(KDB)
	ldi r25,hi8(KDB)
	call osEE_scheduler_task_terminated
.LVL0:
.LBB31:
.LBB32:
	.file 2 "/home/yvonne/receiver/erika/src/ee_hal_internal.h"
	.loc 2 185 0
	movw r22,r24
	ldd r24,Y+1
	ldd r25,Y+2
.LVL1:
	call osEE_change_context_from_task_end
.LVL2:
/* epilogue start */
.LBE32:
.LBE31:
	.loc 1 86 0
	pop __tmp_reg__
	pop __tmp_reg__
	pop r29
	pop r28
	ret
	.cfi_endproc
.LFE53:
	.size	osEE_scheduler_task_end, .-osEE_scheduler_task_end
	.section	.text.osEE_scheduler_task_wrapper_restore,"ax",@progbits
.global	osEE_scheduler_task_wrapper_restore
	.type	osEE_scheduler_task_wrapper_restore, @function
osEE_scheduler_task_wrapper_restore:
.LFB54:
	.loc 1 94 0
	.cfi_startproc
.LVL3:
/* prologue: function */
/* frame size = 0 */
/* stack size = 0 */
.L__stack_usage = 0
	ret
	.cfi_endproc
.LFE54:
	.size	osEE_scheduler_task_wrapper_restore, .-osEE_scheduler_task_wrapper_restore
	.section	.text.osEE_scheduler_task_wrapper_run,"ax",@progbits
.global	osEE_scheduler_task_wrapper_run
	.type	osEE_scheduler_task_wrapper_run, @function
osEE_scheduler_task_wrapper_run:
.LFB55:
	.loc 1 147 0
	.cfi_startproc
.LVL4:
/* prologue: function */
/* frame size = 0 */
/* stack size = 0 */
.L__stack_usage = 0
	.loc 1 147 0
	movw r28,r24
.LVL5:
	.loc 1 148 0
	ldd r30,Y+4
	ldd r31,Y+5
	.loc 1 151 0
	ldd r24,Z+1
.LVL6:
	cpi r24,lo8(-1)
	breq .L4
.LVL7:
.LBB46:
.LBB47:
	.loc 2 105 0
/* #APP */
 ;  105 "/home/yvonne/receiver/erika/src/ee_hal_internal.h" 1
	sei
 ;  0 "" 2
.LVL8:
/* #NOAPP */
.L4:
.LBE47:
.LBE46:
	.loc 1 156 0
	ldd r30,Y+9
	ldd r31,Y+10
	icall
.LVL9:
.LBB48:
.LBB49:
.LBB50:
.LBB51:
.LBB52:
.LBB53:
	.loc 2 111 0
	in r24,__SREG__
.LBB54:
.LBB55:
	.loc 2 100 0
/* #APP */
 ;  100 "/home/yvonne/receiver/erika/src/ee_hal_internal.h" 1
	cli
 ;  0 "" 2
.LVL10:
/* #NOAPP */
.LBE55:
.LBE54:
.LBE53:
.LBE52:
.LBE51:
.LBE50:
.LBB56:
.LBB57:
	.file 3 "/home/yvonne/receiver/erika/src/ee_std_change_context.h"
	.loc 3 136 0
	ldi r22,lo8(gs(osEE_scheduler_task_end))
	ldi r23,hi8(gs(osEE_scheduler_task_end))
	ldd r24,Y+2
	ldd r25,Y+3
	call osEE_hal_terminate_ctx
.LVL11:
.LBE57:
.LBE56:
.LBE49:
.LBE48:
	.cfi_endproc
.LFE55:
	.size	osEE_scheduler_task_wrapper_run, .-osEE_scheduler_task_wrapper_run
	.section	.text.osEE_idle_hook_wrapper,"ax",@progbits
.global	osEE_idle_hook_wrapper
	.type	osEE_idle_hook_wrapper, @function
osEE_idle_hook_wrapper:
.LFB56:
	.loc 1 167 0
	.cfi_startproc
	push r16
.LCFI4:
	.cfi_def_cfa_offset 3
	.cfi_offset 16, -2
	push r17
.LCFI5:
	.cfi_def_cfa_offset 4
	.cfi_offset 17, -3
	push r28
.LCFI6:
	.cfi_def_cfa_offset 5
	.cfi_offset 28, -4
	push r29
.LCFI7:
	.cfi_def_cfa_offset 6
	.cfi_offset 29, -5
/* prologue: function */
/* frame size = 0 */
/* stack size = 4 */
.L__stack_usage = 4
.LBB58:
	.loc 1 178 0
	lds r28,CDB+2
	lds r29,CDB+2+1
.LBE58:
	.loc 1 176 0
	lds r16,CDB
	lds r17,CDB+1
.L10:
	movw r30,r16
	ldd r24,Z+8
	ldd r25,Z+9
	sbiw r24,2
	brne .L16
.L11:
.LVL12:
.LBB59:
	.loc 1 179 0
	sbiw r28,0
	breq .L11
	.loc 1 180 0
	movw r30,r28
	icall
.LVL13:
	rjmp .L10
.LVL14:
.L16:
.LBE59:
	.loc 1 186 0
	lds r24,CDB+4
	lds r25,CDB+4+1
/* epilogue start */
	.loc 1 187 0
	pop r29
	pop r28
	pop r17
	pop r16
	.loc 1 186 0
	jmp osEE_idle_task_terminate
.LVL15:
	.cfi_endproc
.LFE56:
	.size	osEE_idle_hook_wrapper, .-osEE_idle_hook_wrapper
	.text
.Letext0:
	.file 4 "/home/yvonne/Downloads/arduino-1.8.5/hardware/tools/avr/avr/include/stdint.h"
	.file 5 "/home/yvonne/receiver/erika/inc/ee_platform_types.h"
	.file 6 "/home/yvonne/receiver/erika/inc/ee_api_types.h"
	.file 7 "/home/yvonne/receiver/erika/inc/ee_hal_internal_types.h"
	.file 8 "/home/yvonne/receiver/erika/inc/ee_scheduler_types.h"
	.file 9 "/home/yvonne/receiver/erika/inc/ee_kernel_types.h"
	.file 10 "/home/yvonne/receiver/erika/inc/ee_get_kernel_and_core.h"
	.file 11 "/home/yvonne/receiver/erika/src/ee_kernel.h"
	.file 12 "/home/yvonne/receiver/erika/src/ee_scheduler.h"