	.file	"wiring_shift.c"
__SP_H__ = 0x3e
__SP_L__ = 0x3d
__SREG__ = 0x3f
__tmp_reg__ = 0
__zero_reg__ = 1
	.text
.Ltext0:
	.cfi_sections	.debug_frame
	.section	.text.shiftIn,"ax",@progbits
.global	shiftIn
	.type	shiftIn, @function
shiftIn:
.LFB8:
	.file 1 "/home/yvonne/Downloads/arduino-1.8.5/hardware/arduino/avr/cores/arduino/wiring_shift.c"
	.loc 1 25 0
	.cfi_startproc
.LVL0:
	push r12
.LCFI0:
	.cfi_def_cfa_offset 3
	.cfi_offset 12, -2
	push r13
.LCFI1:
	.cfi_def_cfa_offset 4
	.cfi_offset 13, -3
	push r14
.LCFI2:
	.cfi_def_cfa_offset 5
	.cfi_offset 14, -4
	push r15
.LCFI3:
	.cfi_def_cfa_offset 6
	.cfi_offset 15, -5
	push r16
.LCFI4:
	.cfi_def_cfa_offset 7
	.cfi_offset 16, -6
	push r17
.LCFI5:
	.cfi_def_cfa_offset 8
	.cfi_offset 17, -7
	push r28
.LCFI6:
	.cfi_def_cfa_offset 9
	.cfi_offset 28, -8
	push r29
.LCFI7:
	.cfi_def_cfa_offset 10
	.cfi_offset 29, -9
/* prologue: function */
/* frame size = 0 */
/* stack size = 8 */
.L__stack_usage = 8
	mov r15,r24
	mov r29,r22
	mov r14,r20
.LVL1:
	.loc 1 25 0
	ldi r16,lo8(7)
	ldi r17,0
	.loc 1 26 0
	ldi r28,0
	ldi r24,lo8(7)
	mov r12,r24
	mov r13,__zero_reg__
.LVL2:
.L4:
	.loc 1 30 0
	ldi r22,lo8(1)
	mov r24,r29
	call digitalWrite
.LVL3:
	.loc 1 32 0
	mov r24,r15
	.loc 1 31 0
	cpse r14,__zero_reg__
	rjmp .L2
	.loc 1 32 0
	call digitalRead
.LVL4:
	movw r18,r12
	sub r18,r16
	sbc r19,r17
	rjmp 2f
	1:
	lsl r24
	2:
	dec r18
	brpl 1b
	rjmp .L6
.L2:
	.loc 1 34 0
	call digitalRead
.LVL5:
	mov r0,r16
	rjmp 2f
	1:
	lsl r24
	2:
	dec r0
	brpl 1b
.L6:
	or r28,r24
.LVL6:
	.loc 1 35 0
	ldi r22,0
	mov r24,r29
	call digitalWrite
.LVL7:
.LVL8:
	subi r16,1
	sbc r17,__zero_reg__
	brcc .L4
	.loc 1 38 0
	mov r24,r28
/* epilogue start */
	pop r29
.LVL9:
	pop r28
.LVL10:
	pop r17
	pop r16
.LVL11:
	pop r15
.LVL12:
	pop r14
.LVL13:
	pop r13
	pop r12
	ret
	.cfi_endproc
.LFE8:
	.size	shiftIn, .-shiftIn
	.section	.text.shiftOut,"ax",@progbits
.global	shiftOut
	.type	shiftOut, @function
shiftOut:
.LFB9:
	.loc 1 41 0
	.cfi_startproc
.LVL14:
	push r11
.LCFI8:
	.cfi_def_cfa_offset 3
	.cfi_offset 11, -2
	push r12
.LCFI9:
	.cfi_def_cfa_offset 4
	.cfi_offset 12, -3
	push r13
.LCFI10:
	.cfi_def_cfa_offset 5
	.cfi_offset 13, -4
	push r14
.LCFI11:
	.cfi_def_cfa_offset 6
	.cfi_offset 14, -5
	push r15
.LCFI12:
	.cfi_def_cfa_offset 7
	.cfi_offset 15, -6
	push r16
.LCFI13:
	.cfi_def_cfa_offset 8
	.cfi_offset 16, -7
	push r17
.LCFI14:
	.cfi_def_cfa_offset 9
	.cfi_offset 17, -8
	push r28
.LCFI15:
	.cfi_def_cfa_offset 10
	.cfi_offset 28, -9
	push r29
.LCFI16:
	.cfi_def_cfa_offset 11
	.cfi_offset 29, -10
/* prologue: function */
/* frame size = 0 */
/* stack size = 9 */
.L__stack_usage = 9
	mov r12,r24
	mov r13,r22
	mov r11,r20
.LVL15:
	.loc 1 41 0
	ldi r28,lo8(7)
	ldi r29,0
	mov r16,r18
	ldi r17,0
	ldi r24,lo8(7)
	mov r14,r24
	mov r15,__zero_reg__
.LVL16:
.L11:
	.loc 1 45 0
	cpse r11,__zero_reg__
	rjmp .L9
	movw r24,r14
	sub r24,r28
	sbc r25,r29
	.loc 1 46 0
	movw r18,r16
	rjmp .L13
.L9:
	.loc 1 48 0
	movw r18,r16
	mov r24,r28
.L13:
	rjmp 2f
	1:
	asr r19
	ror r18
	2:
	dec r24
	brpl 1b
	movw r22,r18
	andi r22,1
	clr r23
	mov r24,r12
	call digitalWrite
.LVL17:
	.loc 1 50 0
	ldi r22,lo8(1)
	mov r24,r13
	call digitalWrite
.LVL18:
	.loc 1 51 0
	ldi r22,0
	mov r24,r13
	call digitalWrite
.LVL19:
.LVL20:
	sbiw r28,1
	brcc .L11
/* epilogue start */
	.loc 1 53 0
	pop r29
	pop r28
.LVL21:
	pop r17
	pop r16
.LVL22:
	pop r15
	pop r14
	pop r13
.LVL23:
	pop r12
.LVL24:
	pop r11
.LVL25:
	ret
	.cfi_endproc
.LFE9:
	.size	shiftOut, .-shiftOut
	.text
.Letext0:
	.file 2 "/home/yvonne/Downloads/arduino-1.8.5/hardware/arduino/avr/variants/standard/pins_arduino.h"
	.file 3 "/home/yvonne/Downloads/arduino-1.8.5/hardware/arduino/avr/cores/arduino/Arduino.h"
	.file 4 "/home/yvonne/Downloads/arduino-1.8.5/hardware/tools/avr/avr/include/stdint.h"