	.file	"HardwareSerial0.cpp"
__SP_H__ = 0x3e
__SP_L__ = 0x3d
__SREG__ = 0x3f
__tmp_reg__ = 0
__zero_reg__ = 1
	.text
.Ltext0:
	.cfi_sections	.debug_frame
	.section	.text._ZN5Print17availableForWriteEv,"axG",@progbits,_ZN5Print17availableForWriteEv,comdat
	.weak	_ZN5Print17availableForWriteEv
	.type	_ZN5Print17availableForWriteEv, @function
_ZN5Print17availableForWriteEv:
.LFB87:
	.file 1 "/home/yvonne/Downloads/arduino-1.8.5/hardware/arduino/avr/cores/arduino/Print.h"
	.loc 1 63 0
	.cfi_startproc
.LVL0:
/* prologue: function */
/* frame size = 0 */
/* stack size = 0 */
.L__stack_usage = 0
	.loc 1 63 0
	ldi r24,0
	ldi r25,0
.LVL1:
	ret
	.cfi_endproc
.LFE87:
	.size	_ZN5Print17availableForWriteEv, .-_ZN5Print17availableForWriteEv
	.section	.text._ZN5Print5flushEv,"axG",@progbits,_ZN5Print5flushEv,comdat
	.weak	_ZN5Print5flushEv
	.type	_ZN5Print5flushEv, @function
_ZN5Print5flushEv:
.LFB88:
	.loc 1 90 0
	.cfi_startproc
.LVL2:
/* prologue: function */
/* frame size = 0 */
/* stack size = 0 */
.L__stack_usage = 0
	ret
	.cfi_endproc
.LFE88:
	.size	_ZN5Print5flushEv, .-_ZN5Print5flushEv
	.section	.text.__vector_18,"ax",@progbits
.global	__vector_18
	.type	__vector_18, @function
__vector_18:
.LFB116:
	.file 2 "/home/yvonne/Downloads/arduino-1.8.5/hardware/arduino/avr/cores/arduino/HardwareSerial0.cpp"
	.loc 2 48 0
	.cfi_startproc
	.loc 2 48 0
	push r1
.LCFI0:
	.cfi_def_cfa_offset 3
	.cfi_offset 1, -2
	push r0
.LCFI1:
	.cfi_def_cfa_offset 4
	.cfi_offset 0, -3
	in r0,__SREG__
	push r0
	clr __zero_reg__
	push r18
.LCFI2:
	.cfi_def_cfa_offset 5
	.cfi_offset 18, -4
	push r24
.LCFI3:
	.cfi_def_cfa_offset 6
	.cfi_offset 24, -5
	push r25
.LCFI4:
	.cfi_def_cfa_offset 7
	.cfi_offset 25, -6
	push r30
.LCFI5:
	.cfi_def_cfa_offset 8
	.cfi_offset 30, -7
	push r31
.LCFI6:
	.cfi_def_cfa_offset 9
	.cfi_offset 31, -8
/* prologue: Signal */
/* frame size = 0 */
/* stack size = 8 */
.L__stack_usage = 8
.LVL3:
.LBB34:
.LBB35:
	.file 3 "/home/yvonne/Downloads/arduino-1.8.5/hardware/arduino/avr/cores/arduino/HardwareSerial_private.h"
	.loc 3 103 0
	lds r30,Serial+16
	lds r31,Serial+16+1
	ld r24,Z
	lds r30,Serial+22
	lds r31,Serial+22+1
	sbrc r24,2
	rjmp .L4
.LVL4:
.LBE35:
.LBB36:
.LBB37:
	.loc 3 106 0
	ld r25,Z
.LVL5:
	.loc 3 107 0
	lds r24,Serial+25
	subi r24,lo8(-(1))
	andi r24,lo8(63)
.LVL6:
	.loc 3 113 0
	lds r18,Serial+26
	cp r24,r18
	breq .L3
	.loc 3 114 0
	lds r30,Serial+25
	ldi r31,0
	subi r30,lo8(-(Serial))
	sbci r31,hi8(-(Serial))
	std Z+29,r25
	.loc 3 115 0
	sts Serial+25,r24
	rjmp .L3
.LVL7:
.L4:
.LBE37:
.LBE36:
.LBB38:
	.loc 3 119 0
	ld r24,Z
.L3:
/* epilogue start */
.LBE38:
.LBE34:
	.loc 2 50 0
	pop r31
	pop r30
	pop r25
	pop r24
	pop r18
	pop r0
	out __SREG__,r0
	pop r0
	pop r1
	reti
	.cfi_endproc
.LFE116:
	.size	__vector_18, .-__vector_18
	.section	.text.__vector_19,"ax",@progbits
.global	__vector_19
	.type	__vector_19, @function
__vector_19:
.LFB117:
	.loc 2 63 0
	.cfi_startproc
	push r1
.LCFI7:
	.cfi_def_cfa_offset 3
	.cfi_offset 1, -2
	push r0
.LCFI8:
	.cfi_def_cfa_offset 4
	.cfi_offset 0, -3
	in r0,__SREG__
	push r0
	clr __zero_reg__
	push r18
.LCFI9:
	.cfi_def_cfa_offset 5
	.cfi_offset 18, -4
	push r19
.LCFI10:
	.cfi_def_cfa_offset 6
	.cfi_offset 19, -5
	push r20
.LCFI11:
	.cfi_def_cfa_offset 7
	.cfi_offset 20, -6
	push r21
.LCFI12:
	.cfi_def_cfa_offset 8
	.cfi_offset 21, -7
	push r22
.LCFI13:
	.cfi_def_cfa_offset 9
	.cfi_offset 22, -8
	push r23
.LCFI14:
	.cfi_def_cfa_offset 10
	.cfi_offset 23, -9
	push r24
.LCFI15:
	.cfi_def_cfa_offset 11
	.cfi_offset 24, -10
	push r25
.LCFI16:
	.cfi_def_cfa_offset 12
	.cfi_offset 25, -11
	push r26
.LCFI17:
	.cfi_def_cfa_offset 13
	.cfi_offset 26, -12
	push r27
.LCFI18:
	.cfi_def_cfa_offset 14
	.cfi_offset 27, -13
	push r30
.LCFI19:
	.cfi_def_cfa_offset 15
	.cfi_offset 30, -14
	push r31
.LCFI20:
	.cfi_def_cfa_offset 16
	.cfi_offset 31, -15
/* prologue: Signal */
/* frame size = 0 */
/* stack size = 15 */
.L__stack_usage = 15
	.loc 2 64 0
	ldi r24,lo8(Serial)
	ldi r25,hi8(Serial)
	call _ZN14HardwareSerial17_tx_udr_empty_irqEv
.LVL8:
/* epilogue start */
	.loc 2 65 0
	pop r31
	pop r30
	pop r27
	pop r26
	pop r25
	pop r24
	pop r23
	pop r22
	pop r21
	pop r20
	pop r19
	pop r18
	pop r0
	out __SREG__,r0
	pop r0
	pop r1
	reti
	.cfi_endproc
.LFE117:
	.size	__vector_19, .-__vector_19
	.section	.text._Z17Serial0_availablev,"ax",@progbits
.global	_Z17Serial0_availablev
	.type	_Z17Serial0_availablev, @function
_Z17Serial0_availablev:
.LFB118:
	.loc 2 75 0
	.cfi_startproc
/* prologue: function */
/* frame size = 0 */
/* stack size = 0 */
.L__stack_usage = 0
	.loc 2 76 0
	ldi r24,lo8(Serial)
	ldi r25,hi8(Serial)
	call _ZN14HardwareSerial9availableEv
.LVL9:
	ldi r18,lo8(1)
	or r24,r25
	brne .L9
	ldi r18,0
.L9:
	.loc 2 77 0
	mov r24,r18
	ret
	.cfi_endproc
.LFE118:
	.size	_Z17Serial0_availablev, .-_Z17Serial0_availablev
	.section	.text.startup._GLOBAL__sub_I___vector_18,"ax",@progbits
	.type	_GLOBAL__sub_I___vector_18, @function
_GLOBAL__sub_I___vector_18:
.LFB120:
	.loc 2 77 0
	.cfi_startproc
/* prologue: function */
/* frame size = 0 */
/* stack size = 0 */
.L__stack_usage = 0
.LVL10:
.LBB47:
.LBB48:
.LBB49:
.LBB50:
.LBB51:
.LBB52:
.LBB53:
.LBB54:
	.loc 1 46 0
	ldi r30,lo8(Serial)
	ldi r31,hi8(Serial)
	std Z+3,__zero_reg__
	std Z+2,__zero_reg__
.LBE54:
.LBE53:
	.file 4 "/home/yvonne/Downloads/arduino-1.8.5/hardware/arduino/avr/cores/arduino/Stream.h"
	.loc 4 63 0
	ldi r24,lo8(-24)
	ldi r25,lo8(3)
	ldi r26,0
	ldi r27,0
	std Z+4,r24
	std Z+5,r25
	std Z+6,r26
	std Z+7,r27
.LBE52:
.LBE51:
	.loc 3 95 0
	ldi r24,lo8(_ZTV14HardwareSerial+4)
	ldi r25,hi8(_ZTV14HardwareSerial+4)
	std Z+1,r25
	st Z,r24
	ldi r24,lo8(-59)
	ldi r25,0
	std Z+13,r25
	std Z+12,r24
	ldi r24,lo8(-60)
	ldi r25,0
	std Z+15,r25
	std Z+14,r24
	ldi r24,lo8(-64)
	ldi r25,0
	std Z+17,r25
	std Z+16,r24
	ldi r24,lo8(-63)
	ldi r25,0
	std Z+19,r25
	std Z+18,r24
	ldi r24,lo8(-62)
	ldi r25,0
	std Z+21,r25
	std Z+20,r24
	ldi r24,lo8(-58)
	ldi r25,0
	std Z+23,r25
	std Z+22,r24
	std Z+25,__zero_reg__
	std Z+26,__zero_reg__
	std Z+27,__zero_reg__
	std Z+28,__zero_reg__
	ret
.LBE50:
.LBE49:
.LBE48:
.LBE47:
	.cfi_endproc
.LFE120:
	.size	_GLOBAL__sub_I___vector_18, .-_GLOBAL__sub_I___vector_18
	.global __do_global_ctors
	.section .ctors,"a",@progbits
	.p2align	1
	.word	gs(_GLOBAL__sub_I___vector_18)
.global	Serial
	.section	.bss.Serial,"aw",@nobits
	.type	Serial, @object
	.size	Serial, 157
Serial:
	.zero	157
	.text
.Letext0:
	.file 5 "/home/yvonne/Downloads/arduino-1.8.5/hardware/tools/avr/lib/gcc/avr/4.9.2/include/stddef.h"
	.file 6 "/home/yvonne/Downloads/arduino-1.8.5/hardware/tools/avr/avr/include/stdint.h"
	.file 7 "/home/yvonne/Downloads/arduino-1.8.5/hardware/arduino/avr/cores/arduino/WString.h"
	.file 8 "/home/yvonne/Downloads/arduino-1.8.5/hardware/arduino/avr/cores/arduino/HardwareSerial.h"
	.file 9 "/home/yvonne/Downloads/arduino-1.8.5/hardware/arduino/avr/variants/standard/pins_arduino.h"
	.file 10 "<built-in>"