	.file	"Stream.cpp"
__SP_H__ = 0x3e
__SP_L__ = 0x3d
__SREG__ = 0x3f
__tmp_reg__ = 0
__zero_reg__ = 1
	.text
.Ltext0:
	.cfi_sections	.debug_frame
	.section	.text._ZN6Stream9timedReadEv,"ax",@progbits
.global	_ZN6Stream9timedReadEv
	.type	_ZN6Stream9timedReadEv, @function
_ZN6Stream9timedReadEv:
.LFB112:
	.file 1 "/home/yvonne/Downloads/arduino-1.8.5/hardware/arduino/avr/cores/arduino/Stream.cpp"
	.loc 1 32 0
	.cfi_startproc
.LVL0:
	push r16
.LCFI0:
	.cfi_def_cfa_offset 3
	.cfi_offset 16, -2
	push r17
.LCFI1:
	.cfi_def_cfa_offset 4
	.cfi_offset 17, -3
	push r28
.LCFI2:
	.cfi_def_cfa_offset 5
	.cfi_offset 28, -4
	push r29
.LCFI3:
	.cfi_def_cfa_offset 6
	.cfi_offset 29, -5
/* prologue: function */
/* frame size = 0 */
/* stack size = 4 */
.L__stack_usage = 4
	movw r28,r24
.LBB11:
	.loc 1 34 0
	call millis
.LVL1:
	std Y+8,r22
	std Y+9,r23
	std Y+10,r24
	std Y+11,r25
.L3:
	.loc 1 36 0
	ld r30,Y
	ldd r31,Y+1
	ldd __tmp_reg__,Z+10
	ldd r31,Z+11
	mov r30,__tmp_reg__
	movw r24,r28
	icall
.LVL2:
	.loc 1 37 0
	sbrs r25,7
	rjmp .L2
	.loc 1 38 0
	call millis
.LVL3:
	ldd r16,Y+8
	ldd r17,Y+9
	ldd r18,Y+10
	ldd r19,Y+11
	movw r26,r24
	movw r24,r22
	sub r24,r16
	sbc r25,r17
	sbc r26,r18
	sbc r27,r19
	.loc 1 35 0
	ldd r16,Y+4
	ldd r17,Y+5
	ldd r18,Y+6
	ldd r19,Y+7
	cp r24,r16
	cpc r25,r17
	cpc r26,r18
	cpc r27,r19
	brlo .L3
	.loc 1 39 0
	ldi r24,lo8(-1)
	ldi r25,lo8(-1)
.L2:
/* epilogue start */
.LBE11:
	.loc 1 40 0
	pop r29
	pop r28
.LVL4:
	pop r17
	pop r16
	ret
	.cfi_endproc
.LFE112:
	.size	_ZN6Stream9timedReadEv, .-_ZN6Stream9timedReadEv
	.section	.text._ZN6Stream9timedPeekEv,"ax",@progbits
.global	_ZN6Stream9timedPeekEv
	.type	_ZN6Stream9timedPeekEv, @function
_ZN6Stream9timedPeekEv:
.LFB113:
	.loc 1 44 0
	.cfi_startproc
.LVL5:
	push r16
.LCFI4:
	.cfi_def_cfa_offset 3
	.cfi_offset 16, -2
	push r17
.LCFI5:
	.cfi_def_cfa_offset 4
	.cfi_offset 17, -3
	push r28
.LCFI6:
	.cfi_def_cfa_offset 5
	.cfi_offset 28, -4
	push r29
.LCFI7:
	.cfi_def_cfa_offset 6
	.cfi_offset 29, -5
/* prologue: function */
/* frame size = 0 */
/* stack size = 4 */
.L__stack_usage = 4
	movw r28,r24
.LBB12:
	.loc 1 46 0
	call millis
.LVL6:
	std Y+8,r22
	std Y+9,r23
	std Y+10,r24
	std Y+11,r25
.L9:
	.loc 1 48 0
	ld r30,Y
	ldd r31,Y+1
	ldd __tmp_reg__,Z+12
	ldd r31,Z+13
	mov r30,__tmp_reg__
	movw r24,r28
	icall
.LVL7:
	.loc 1 49 0
	sbrs r25,7
	rjmp .L8
	.loc 1 50 0
	call millis
.LVL8:
	ldd r16,Y+8
	ldd r17,Y+9
	ldd r18,Y+10
	ldd r19,Y+11
	movw r26,r24
	movw r24,r22
	sub r24,r16
	sbc r25,r17
	sbc r26,r18
	sbc r27,r19
	.loc 1 47 0
	ldd r16,Y+4
	ldd r17,Y+5
	ldd r18,Y+6
	ldd r19,Y+7
	cp r24,r16
	cpc r25,r17
	cpc r26,r18
	cpc r27,r19
	brlo .L9
	.loc 1 51 0
	ldi r24,lo8(-1)
	ldi r25,lo8(-1)
.L8:
/* epilogue start */
.LBE12:
	.loc 1 52 0
	pop r29
	pop r28
.LVL9:
	pop r17
	pop r16
	ret
	.cfi_endproc
.LFE113:
	.size	_ZN6Stream9timedPeekEv, .-_ZN6Stream9timedPeekEv
	.section	.text._ZN6Stream13peekNextDigitE13LookaheadModeb,"ax",@progbits
.global	_ZN6Stream13peekNextDigitE13LookaheadModeb
	.type	_ZN6Stream13peekNextDigitE13LookaheadModeb, @function
_ZN6Stream13peekNextDigitE13LookaheadModeb:
.LFB114:
	.loc 1 57 0
	.cfi_startproc
.LVL10:
	push r15
.LCFI8:
	.cfi_def_cfa_offset 3
	.cfi_offset 15, -2
	push r16
.LCFI9:
	.cfi_def_cfa_offset 4
	.cfi_offset 16, -3
	push r17
.LCFI10:
	.cfi_def_cfa_offset 5
	.cfi_offset 17, -4
	push r28
.LCFI11:
	.cfi_def_cfa_offset 6
	.cfi_offset 28, -5
	push r29
.LCFI12:
	.cfi_def_cfa_offset 7
	.cfi_offset 29, -6
/* prologue: function */
/* frame size = 0 */
/* stack size = 5 */
.L__stack_usage = 5
	movw r28,r24
	movw r16,r22
	mov r15,r20
.LVL11:
.L19:
.LBB13:
	.loc 1 60 0
	movw r24,r28
	call _ZN6Stream9timedPeekEv
.LVL12:
	movw r18,r24
.LVL13:
	.loc 1 62 0
	sbrc r25,7
	rjmp .L13
	.loc 1 62 0 is_stmt 0 discriminator 1
	cpi r24,45
	cpc r25,__zero_reg__
	breq .L13
	.loc 1 64 0 is_stmt 1
	sbiw r24,48
	.loc 1 63 0
	sbiw r24,10
	brlo .L13
	.loc 1 64 0
	tst r15
	breq .L14
	.loc 1 65 0
	cpi r18,46
	cpc r19,__zero_reg__
	brne .L14
.L13:
	.loc 1 65 0 is_stmt 0 discriminator 1
	movw r24,r18
	rjmp .L15
.L14:
	.loc 1 67 0 is_stmt 1
	cpi r16,1
	cpc r17,__zero_reg__
	breq .L21
	cpi r16,2
	cpc r17,__zero_reg__
	brne .L16
	.loc 1 70 0
	cpi r18,13
	cpc r19,__zero_reg__
	breq .L16
	brge .L18
	subi r18,9
	sbc r19,__zero_reg__
.LVL14:
	cpi r18,2
	cpc r19,__zero_reg__
	brlo .L16
	rjmp .L21
.LVL15:
.L18:
	cpi r18,32
	cpc r19,__zero_reg__
	brne .L21
.LVL16:
.L16:
	.loc 1 80 0
	ld r30,Y
	ldd r31,Y+1
	ldd __tmp_reg__,Z+10
	ldd r31,Z+11
	mov r30,__tmp_reg__
	movw r24,r28
.LVL17:
	icall
.LVL18:
	.loc 1 81 0
	rjmp .L19
.LVL19:
.L21:
	.loc 1 75 0
	ldi r24,lo8(-1)
.LVL20:
	ldi r25,lo8(-1)
.L15:
/* epilogue start */
.LBE13:
	.loc 1 82 0
	pop r29
	pop r28
.LVL21:
	pop r17
	pop r16
.LVL22:
	pop r15
.LVL23:
	ret
	.cfi_endproc
.LFE114:
	.size	_ZN6Stream13peekNextDigitE13LookaheadModeb, .-_ZN6Stream13peekNextDigitE13LookaheadModeb
	.section	.text._ZN6Stream10setTimeoutEm,"ax",@progbits
.global	_ZN6Stream10setTimeoutEm
	.type	_ZN6Stream10setTimeoutEm, @function
_ZN6Stream10setTimeoutEm:
.LFB115:
	.loc 1 88 0
	.cfi_startproc
.LVL24:
/* prologue: function */
/* frame size = 0 */
/* stack size = 0 */
.L__stack_usage = 0
	.loc 1 89 0
	movw r30,r24
	std Z+4,r20
	std Z+5,r21
	std Z+6,r22
	std Z+7,r23
	ret
	.cfi_endproc
.LFE115:
	.size	_ZN6Stream10setTimeoutEm, .-_ZN6Stream10setTimeoutEm
	.section	.text._ZN6Stream8parseIntE13LookaheadModec,"ax",@progbits
.global	_ZN6Stream8parseIntE13LookaheadModec
	.type	_ZN6Stream8parseIntE13LookaheadModec, @function
_ZN6Stream8parseIntE13LookaheadModec:
.LFB120:
	.loc 1 131 0
	.cfi_startproc
.LVL25:
	push r8
.LCFI13:
	.cfi_def_cfa_offset 3
	.cfi_offset 8, -2
	push r9
.LCFI14:
	.cfi_def_cfa_offset 4
	.cfi_offset 9, -3
	push r10
.LCFI15:
	.cfi_def_cfa_offset 5
	.cfi_offset 10, -4
	push r11
.LCFI16:
	.cfi_def_cfa_offset 6
	.cfi_offset 11, -5
	push r12
.LCFI17:
	.cfi_def_cfa_offset 7
	.cfi_offset 12, -6
	push r13
.LCFI18:
	.cfi_def_cfa_offset 8
	.cfi_offset 13, -7
	push r15
.LCFI19:
	.cfi_def_cfa_offset 9
	.cfi_offset 15, -8
	push r16
.LCFI20:
	.cfi_def_cfa_offset 10
	.cfi_offset 16, -9
	push r17
.LCFI21:
	.cfi_def_cfa_offset 11
	.cfi_offset 17, -10
	push r28
.LCFI22:
	.cfi_def_cfa_offset 12
	.cfi_offset 28, -11
	push r29
.LCFI23:
	.cfi_def_cfa_offset 13
	.cfi_offset 29, -12
	rcall .
	rcall .
.LCFI24:
	.cfi_def_cfa_offset 17
	in r28,__SP_L__
	in r29,__SP_H__
.LCFI25:
	.cfi_def_cfa_register 28
/* prologue: function */
/* frame size = 4 */
/* stack size = 15 */
.L__stack_usage = 15
	movw r16,r24
	mov r11,r20
.LVL26:
.LBB14:
	.loc 1 136 0
	ldi r20,0
.LVL27:
	call _ZN6Stream13peekNextDigitE13LookaheadModeb
.LVL28:
	movw r30,r24
.LVL29:
	.loc 1 138 0
	sbrc r25,7
	rjmp .L40
	ldi r18,0
	ldi r19,0
	movw r20,r18
	mov r15,__zero_reg__
	.loc 1 142 0
	mov r12,r11
	lsl r11
	sbc r13,r13
.LVL30:
.L37:
	cp r30,r12
	cpc r31,r13
	breq .L38
	.loc 1 144 0
	cpi r30,45
	cpc r31,__zero_reg__
	breq .L41
	.loc 1 146 0
	movw r24,r30
	sbiw r24,48
	sbiw r24,10
	brsh .L38
	.loc 1 147 0
	ldi r26,lo8(10)
	ldi r27,0
	call __muluhisi3
	movw r8,r30
	lsl r31
	sbc r10,r10
	sbc r11,r11
	movw r26,r24
	movw r24,r22
	add r24,r8
	adc r25,r9
	adc r26,r10
	adc r27,r11
	movw r18,r24
	movw r20,r26
.LVL31:
	subi r18,48
	sbc r19,__zero_reg__
	sbc r20,__zero_reg__
	sbc r21,__zero_reg__
.LVL32:
	rjmp .L38
.L41:
	.loc 1 145 0
	clr r15
	inc r15
.LVL33:
.L38:
	.loc 1 148 0
	movw r26,r16
	ld r30,X+
	ld r31,X
.LVL34:
	ldd __tmp_reg__,Z+10
	ldd r31,Z+11
	mov r30,__tmp_reg__
	movw r24,r16
	std Y+1,r18
	std Y+2,r19
	std Y+3,r20
	std Y+4,r21
	icall
.LVL35:
	.loc 1 149 0
	movw r24,r16
	call _ZN6Stream9timedPeekEv
.LVL36:
	movw r30,r24
.LVL37:
	.loc 1 151 0
	sbiw r24,48
.LVL38:
	.loc 1 141 0
	ldd r18,Y+1
	ldd r19,Y+2
	ldd r20,Y+3
	ldd r21,Y+4
	sbiw r24,10
	brlo .L37
	.loc 1 151 0
	cp r30,r12
	cpc r31,r13
	breq .L37
	.loc 1 153 0
	tst r15
	breq .L42
	.loc 1 154 0
	clr r22
	clr r23
	movw r24,r22
	sub r22,r18
	sbc r23,r19
	sbc r24,r20
	sbc r25,r21
	rjmp .L36
.LVL39:
.L40:
	.loc 1 139 0
	ldi r22,0
	ldi r23,0
	movw r24,r22
	rjmp .L36
.LVL40:
.L42:
	movw r24,r20
	movw r22,r18
.LVL41:
.L36:
/* epilogue start */
.LBE14:
	.loc 1 156 0
	pop __tmp_reg__
	pop __tmp_reg__
	pop __tmp_reg__
	pop __tmp_reg__
	pop r29
	pop r28
	pop r17
	pop r16
.LVL42:
	pop r15
	pop r13
	pop r12
	pop r11
.LVL43:
	pop r10
	pop r9
	pop r8
	ret
	.cfi_endproc
.LFE120:
	.size	_ZN6Stream8parseIntE13LookaheadModec, .-_ZN6Stream8parseIntE13LookaheadModec
.global	__mulsf3
.global	__floatsisf
	.section	.text._ZN6Stream10parseFloatE13LookaheadModec,"ax",@progbits
.global	_ZN6Stream10parseFloatE13LookaheadModec
	.type	_ZN6Stream10parseFloatE13LookaheadModec, @function
_ZN6Stream10parseFloatE13LookaheadModec:
.LFB121:
	.loc 1 160 0
	.cfi_startproc
.LVL44:
	push r4
.LCFI26:
	.cfi_def_cfa_offset 3
	.cfi_offset 4, -2
	push r5
.LCFI27:
	.cfi_def_cfa_offset 4
	.cfi_offset 5, -3
	push r6
.LCFI28:
	.cfi_def_cfa_offset 5
	.cfi_offset 6, -4
	push r7
.LCFI29:
	.cfi_def_cfa_offset 6
	.cfi_offset 7, -5
	push r10
.LCFI30:
	.cfi_def_cfa_offset 7
	.cfi_offset 10, -6
	push r11
.LCFI31:
	.cfi_def_cfa_offset 8
	.cfi_offset 11, -7
	push r12
.LCFI32:
	.cfi_def_cfa_offset 9
	.cfi_offset 12, -8
	push r13
.LCFI33:
	.cfi_def_cfa_offset 10
	.cfi_offset 13, -9
	push r14
.LCFI34:
	.cfi_def_cfa_offset 11
	.cfi_offset 14, -10
	push r15
.LCFI35:
	.cfi_def_cfa_offset 12
	.cfi_offset 15, -11
	push r16
.LCFI36:
	.cfi_def_cfa_offset 13
	.cfi_offset 16, -12
	push r17
.LCFI37:
	.cfi_def_cfa_offset 14
	.cfi_offset 17, -13
	push r28
.LCFI38:
	.cfi_def_cfa_offset 15
	.cfi_offset 28, -14
	push r29
.LCFI39:
	.cfi_def_cfa_offset 16
	.cfi_offset 29, -15
/* prologue: function */
/* frame size = 0 */
/* stack size = 14 */
.L__stack_usage = 14
	movw r10,r24
	mov r16,r20
.LVL45:
.LBB15:
	.loc 1 167 0
	ldi r20,lo8(1)
.LVL46:
	call _ZN6Stream13peekNextDigitE13LookaheadModeb
.LVL47:
	movw r30,r24
.LVL48:
	.loc 1 169 0
	sbrc r25,7
	rjmp .L51
	mov r4,__zero_reg__
	mov r5,__zero_reg__
	ldi r24,lo8(-128)
	mov r6,r24
	ldi r24,lo8(63)
	mov r7,r24
.LVL49:
	mov r12,__zero_reg__
	mov r13,__zero_reg__
	movw r14,r12
	ldi r28,0
	ldi r29,0
	.loc 1 173 0
	mov __tmp_reg__,r16
	lsl r0
	sbc r17,r17
.LVL50:
.L45:
	cp r30,r16
	cpc r31,r17
	breq .L46
	.loc 1 175 0
	cpi r30,45
	cpc r31,__zero_reg__
	breq .L52
	.loc 1 177 0
	cpi r30,46
	cpc r31,__zero_reg__
	breq .L53
	.loc 1 179 0
	movw r24,r30
	sbiw r24,48
	sbiw r24,10
	brsh .L46
	.loc 1 180 0
	ldi r26,lo8(10)
	ldi r27,0
	movw r20,r14
	movw r18,r12
	call __muluhisi3
	movw r12,r30
	lsl r31
	sbc r14,r14
	sbc r15,r15
.LVL51:
	add r12,r22
	adc r13,r23
	adc r14,r24
	adc r15,r25
	ldi r24,48
	sub r12,r24
	sbc r13,__zero_reg__
	sbc r14,__zero_reg__
	sbc r15,__zero_reg__
.LVL52:
	.loc 1 181 0
	tst r28
	breq .L46
	.loc 1 182 0
	ldi r18,lo8(-51)
	ldi r19,lo8(-52)
	ldi r20,lo8(-52)
	ldi r21,lo8(61)
	movw r24,r6
	movw r22,r4
	call __mulsf3
.LVL53:
	movw r4,r22
	movw r6,r24
.LVL54:
	rjmp .L46
.LVL55:
.L52:
	.loc 1 176 0
	ldi r29,lo8(1)
.LVL56:
	rjmp .L46
.LVL57:
.L53:
	.loc 1 178 0
	ldi r28,lo8(1)
.LVL58:
.L46:
	.loc 1 184 0
	movw r26,r10
	ld r30,X+
	ld r31,X
	ldd __tmp_reg__,Z+10
	ldd r31,Z+11
	mov r30,__tmp_reg__
	movw r24,r10
	icall
.LVL59:
	.loc 1 185 0
	movw r24,r10
	call _ZN6Stream9timedPeekEv
.LVL60:
	movw r30,r24
.LVL61:
	.loc 1 187 0
	sbiw r24,48
.LVL62:
	.loc 1 172 0
	sbiw r24,10
	brlo .L45
	.loc 1 187 0
	cpi r30,46
	cpc r31,__zero_reg__
	brne .L48
	.loc 1 187 0 is_stmt 0 discriminator 1
	tst r28
	brne .+2
	rjmp .L45
.L48:
	.loc 1 187 0 discriminator 3
	cp r30,r16
	cpc r31,r17
	brne .+2
	rjmp .L45
	movw r24,r14
	movw r22,r12
	.loc 1 189 0 is_stmt 1
	tst r29
	breq .L49
	.loc 1 190 0
	com r25
	com r24
	com r23
	neg r22
	sbci r23,lo8(-1)
	sbci r24,lo8(-1)
	sbci r25,lo8(-1)
.LVL63:
.L49:
	.loc 1 191 0
	tst r28
	breq .L50
	.loc 1 192 0
	call __floatsisf
.LVL64:
	movw r20,r6
	movw r18,r4
	call __mulsf3
.LVL65:
	rjmp .L44
.LVL66:
.L50:
	.loc 1 194 0
	call __floatsisf
.LVL67:
	rjmp .L44
.LVL68:
.L51:
	.loc 1 170 0
	ldi r22,0
	ldi r23,0
	movw r24,r22
.LVL69:
.L44:
/* epilogue start */
.LBE15:
	.loc 1 195 0
	pop r29
	pop r28
	pop r17
	pop r16
	pop r15
	pop r14
	pop r13
	pop r12
	pop r11
	pop r10
.LVL70:
	pop r7
	pop r6
	pop r5
	pop r4
	ret
	.cfi_endproc
.LFE121:
	.size	_ZN6Stream10parseFloatE13LookaheadModec, .-_ZN6Stream10parseFloatE13LookaheadModec
	.section	.text._ZN6Stream9readBytesEPcj,"ax",@progbits
.global	_ZN6Stream9readBytesEPcj
	.type	_ZN6Stream9readBytesEPcj, @function
_ZN6Stream9readBytesEPcj:
.LFB122:
	.loc 1 203 0
	.cfi_startproc
.LVL71:
	push r12
.LCFI40:
	.cfi_def_cfa_offset 3
	.cfi_offset 12, -2
	push r13
.LCFI41:
	.cfi_def_cfa_offset 4
	.cfi_offset 13, -3
	push r14
.LCFI42:
	.cfi_def_cfa_offset 5
	.cfi_offset 14, -4
	push r15
.LCFI43:
	.cfi_def_cfa_offset 6
	.cfi_offset 15, -5
	push r16
.LCFI44:
	.cfi_def_cfa_offset 7
	.cfi_offset 16, -6
	push r17
.LCFI45:
	.cfi_def_cfa_offset 8
	.cfi_offset 17, -7
	push r28
.LCFI46:
	.cfi_def_cfa_offset 9
	.cfi_offset 28, -8
	push r29
.LCFI47:
	.cfi_def_cfa_offset 10
	.cfi_offset 29, -9
/* prologue: function */
/* frame size = 0 */
/* stack size = 8 */
.L__stack_usage = 8
	movw r12,r24
	movw r14,r20
.LVL72:
	movw r16,r22
.LBB16:
	.loc 1 204 0
	ldi r28,0
	ldi r29,0
.LVL73:
.L65:
	.loc 1 205 0
	cp r28,r14
	cpc r29,r15
	breq .L69
.LBB17:
	.loc 1 206 0
	movw r24,r12
	call _ZN6Stream9timedReadEv
.LVL74:
	.loc 1 207 0
	sbrs r25,7
	rjmp .L66
.LBE17:
	movw r14,r28
.LVL75:
	rjmp .L69
.LVL76:
.L66:
.LBB18:
	.loc 1 208 0
	movw r30,r16
	st Z+,r24
	movw r16,r30
	.loc 1 209 0
	adiw r28,1
.LVL77:
	rjmp .L65
.LVL78:
.L69:
.LBE18:
.LBE16:
	.loc 1 212 0
	movw r24,r14
/* epilogue start */
	pop r29
	pop r28
.LVL79:
	pop r17
	pop r16
	pop r15
	pop r14
	pop r13
	pop r12
.LVL80:
	ret
	.cfi_endproc
.LFE122:
	.size	_ZN6Stream9readBytesEPcj, .-_ZN6Stream9readBytesEPcj
	.section	.text._ZN6Stream14readBytesUntilEcPcj,"ax",@progbits
.global	_ZN6Stream14readBytesUntilEcPcj
	.type	_ZN6Stream14readBytesUntilEcPcj, @function
_ZN6Stream14readBytesUntilEcPcj:
.LFB123:
	.loc 1 220 0
	.cfi_startproc
.LVL81:
	push r10
.LCFI48:
	.cfi_def_cfa_offset 3
	.cfi_offset 10, -2
	push r11
.LCFI49:
	.cfi_def_cfa_offset 4
	.cfi_offset 11, -3
	push r12
.LCFI50:
	.cfi_def_cfa_offset 5
	.cfi_offset 12, -4
	push r13
.LCFI51:
	.cfi_def_cfa_offset 6
	.cfi_offset 13, -5
	push r14
.LCFI52:
	.cfi_def_cfa_offset 7
	.cfi_offset 14, -6
	push r15
.LCFI53:
	.cfi_def_cfa_offset 8
	.cfi_offset 15, -7
	push r16
.LCFI54:
	.cfi_def_cfa_offset 9
	.cfi_offset 16, -8
	push r17
.LCFI55:
	.cfi_def_cfa_offset 10
	.cfi_offset 17, -9
	push r28
.LCFI56:
	.cfi_def_cfa_offset 11
	.cfi_offset 28, -10
	push r29
.LCFI57:
	.cfi_def_cfa_offset 12
	.cfi_offset 29, -11
/* prologue: function */
/* frame size = 0 */
/* stack size = 10 */
.L__stack_usage = 10
.LBB19:
	.loc 1 221 0
	cp r18,__zero_reg__
	cpc r19,__zero_reg__
	breq .L75
	movw r14,r18
	movw r10,r24
	movw r12,r20
.LVL82:
	ldi r28,0
	ldi r29,0
.LBB20:
	.loc 1 225 0
	mov r16,r22
	lsl r22
	sbc r17,r17
.LVL83:
.L74:
	.loc 1 224 0
	movw r24,r10
	call _ZN6Stream9timedReadEv
.LVL84:
	.loc 1 225 0
	sbrs r25,7
	rjmp .L72
.LVL85:
.L73:
.LBE20:
	.loc 1 229 0
	movw r24,r28
.LVL86:
	rjmp .L71
.LVL87:
.L72:
.LBB21:
	.loc 1 225 0 discriminator 1
	cp r24,r16
	cpc r25,r17
	breq .L73
.LVL88:
	.loc 1 226 0
	movw r30,r12
	st Z+,r24
	movw r12,r30
	.loc 1 227 0
	adiw r28,1
.LVL89:
.LBE21:
	.loc 1 223 0
	cp r28,r14
	cpc r29,r15
	brne .L74
	rjmp .L73
.LVL90:
.L75:
	.loc 1 221 0
	ldi r24,0
.LVL91:
	ldi r25,0
.LVL92:
.L71:
/* epilogue start */
.LBE19:
	.loc 1 230 0
	pop r29
	pop r28
	pop r17
	pop r16
	pop r15
	pop r14
	pop r13
	pop r12
	pop r11
	pop r10
	ret
	.cfi_endproc
.LFE123:
	.size	_ZN6Stream14readBytesUntilEcPcj, .-_ZN6Stream14readBytesUntilEcPcj
	.section	.rodata.str1.1,"aMS",@progbits,1
.LC0:
	.string	""
	.section	.text._ZN6Stream10readStringEv,"ax",@progbits
.global	_ZN6Stream10readStringEv
	.type	_ZN6Stream10readStringEv, @function
_ZN6Stream10readStringEv:
.LFB124:
	.loc 1 233 0
	.cfi_startproc
.LVL93:
	push r16
.LCFI58:
	.cfi_def_cfa_offset 3
	.cfi_offset 16, -2
	push r17
.LCFI59:
	.cfi_def_cfa_offset 4
	.cfi_offset 17, -3
	push r28
.LCFI60:
	.cfi_def_cfa_offset 5
	.cfi_offset 28, -4
	push r29
.LCFI61:
	.cfi_def_cfa_offset 6
	.cfi_offset 29, -5
/* prologue: function */
/* frame size = 0 */
/* stack size = 4 */
.L__stack_usage = 4
	movw r28,r24
	movw r16,r22
.LBB22:
	.loc 1 234 0
	ldi r22,lo8(.LC0)
	ldi r23,hi8(.LC0)
.LVL94:
	call _ZN6StringC1EPKc
.LVL95:
.L80:
	.loc 1 239 0
	movw r24,r16
	call _ZN6Stream9timedReadEv
.LVL96:
	.loc 1 236 0
	sbrc r25,7
	rjmp .L81
.LVL97:
.LBB23:
.LBB24:
	.file 2 "/home/yvonne/Downloads/arduino-1.8.5/hardware/arduino/avr/cores/arduino/WString.h"
	.loc 2 115 0
	mov r22,r24
	movw r24,r28
.LVL98:
	call _ZN6String6concatEc
.LVL99:
	rjmp .L80
.LVL100:
.L81:
.LBE24:
.LBE23:
.LBE22:
	.loc 1 242 0
	movw r24,r28
.LVL101:
/* epilogue start */
	pop r29
	pop r28
.LVL102:
	pop r17
	pop r16
.LVL103:
	ret
	.cfi_endproc
.LFE124:
	.size	_ZN6Stream10readStringEv, .-_ZN6Stream10readStringEv
	.section	.text._ZN6Stream15readStringUntilEc,"ax",@progbits
.global	_ZN6Stream15readStringUntilEc
	.type	_ZN6Stream15readStringUntilEc, @function
_ZN6Stream15readStringUntilEc:
.LFB125:
	.loc 1 245 0
	.cfi_startproc
.LVL104:
	push r14
.LCFI62:
	.cfi_def_cfa_offset 3
	.cfi_offset 14, -2
	push r15
.LCFI63:
	.cfi_def_cfa_offset 4
	.cfi_offset 15, -3
	push r16
.LCFI64:
	.cfi_def_cfa_offset 5
	.cfi_offset 16, -4
	push r17
.LCFI65:
	.cfi_def_cfa_offset 6
	.cfi_offset 17, -5
	push r28
.LCFI66:
	.cfi_def_cfa_offset 7
	.cfi_offset 28, -6
	push r29
.LCFI67:
	.cfi_def_cfa_offset 8
	.cfi_offset 29, -7
/* prologue: function */
/* frame size = 0 */
/* stack size = 6 */
.L__stack_usage = 6
	movw r28,r24
	movw r14,r22
	mov r16,r20
.LBB25:
	.loc 1 246 0
	ldi r22,lo8(.LC0)
	ldi r23,hi8(.LC0)
.LVL105:
	call _ZN6StringC1EPKc
.LVL106:
	.loc 1 247 0
	movw r24,r14
	call _ZN6Stream9timedReadEv
.LVL107:
	.loc 1 248 0
	mov __tmp_reg__,r16
	lsl r0
	sbc r17,r17
.L83:
	sbrc r25,7
	rjmp .L82
	.loc 1 248 0 is_stmt 0 discriminator 1
	cp r24,r16
	cpc r25,r17
	breq .L82
.LVL108:
.LBB26:
.LBB27:
	.loc 2 115 0 is_stmt 1
	mov r22,r24
	movw r24,r28
.LVL109:
	call _ZN6String6concatEc
.LVL110:
.LBE27:
.LBE26:
	.loc 1 251 0
	movw r24,r14
	call _ZN6Stream9timedReadEv
.LVL111:
	rjmp .L83
.LVL112:
.L82:
.LBE25:
	.loc 1 254 0
	movw r24,r28
.LVL113:
/* epilogue start */
	pop r29
	pop r28
.LVL114:
	pop r17
	pop r16
.LVL115:
	pop r15
	pop r14
.LVL116:
	ret
	.cfi_endproc
.LFE125:
	.size	_ZN6Stream15readStringUntilEc, .-_ZN6Stream15readStringUntilEc
	.section	.text._ZN6Stream9findMultiEPNS_11MultiTargetEi,"ax",@progbits
.global	_ZN6Stream9findMultiEPNS_11MultiTargetEi
	.type	_ZN6Stream9findMultiEPNS_11MultiTargetEi, @function
_ZN6Stream9findMultiEPNS_11MultiTargetEi:
.LFB126:
	.loc 1 256 0
	.cfi_startproc
.LVL117:
	push r4
.LCFI68:
	.cfi_def_cfa_offset 3
	.cfi_offset 4, -2
	push r5
.LCFI69:
	.cfi_def_cfa_offset 4
	.cfi_offset 5, -3
	push r6
.LCFI70:
	.cfi_def_cfa_offset 5
	.cfi_offset 6, -4
	push r7
.LCFI71:
	.cfi_def_cfa_offset 6
	.cfi_offset 7, -5
	push r8
.LCFI72:
	.cfi_def_cfa_offset 7
	.cfi_offset 8, -6
	push r9
.LCFI73:
	.cfi_def_cfa_offset 8
	.cfi_offset 9, -7
	push r10
.LCFI74:
	.cfi_def_cfa_offset 9
	.cfi_offset 10, -8
	push r11
.LCFI75:
	.cfi_def_cfa_offset 10
	.cfi_offset 11, -9
	push r12
.LCFI76:
	.cfi_def_cfa_offset 11
	.cfi_offset 12, -10
	push r13
.LCFI77:
	.cfi_def_cfa_offset 12
	.cfi_offset 13, -11
	push r14
.LCFI78:
	.cfi_def_cfa_offset 13
	.cfi_offset 14, -12
	push r15
.LCFI79:
	.cfi_def_cfa_offset 14
	.cfi_offset 15, -13
	push r16
.LCFI80:
	.cfi_def_cfa_offset 15
	.cfi_offset 16, -14
	push r17
.LCFI81:
	.cfi_def_cfa_offset 16
	.cfi_offset 17, -15
	push r28
.LCFI82:
	.cfi_def_cfa_offset 17
	.cfi_offset 28, -16
	push r29
.LCFI83:
	.cfi_def_cfa_offset 18
	.cfi_offset 29, -17
/* prologue: function */
/* frame size = 0 */
/* stack size = 16 */
.L__stack_usage = 16
	movw r16,r24
	movw r28,r22
.LVL118:
.LBB28:
	.loc 1 259 0
	ldi r24,lo8(6)
.LVL119:
	mul r24,r20
	movw r8,r0
	mul r24,r21
	add r9,r0
	clr __zero_reg__
	add r8,r22
	adc r9,r23
	movw r30,r22
.LVL120:
.L87:
	.loc 1 259 0 is_stmt 0 discriminator 1
	cp r30,r8
	cpc r31,r9
	brsh .L109
	.loc 1 260 0 is_stmt 1
	ldd r24,Z+2
	ldd r25,Z+3
	or r24,r25
	breq .L111
	.loc 1 259 0 discriminator 2
	adiw r30,6
.LVL121:
	rjmp .L87
.LVL122:
.L101:
.LBE28:
.LBB29:
.LBB30:
.LBB31:
	.loc 1 271 0
	ld r22,Z
	ldd r23,Z+1
	ldd r20,Z+4
	ldd r21,Z+5
	movw r26,r22
	add r26,r20
	adc r27,r21
	ld r18,X
	mov __tmp_reg__,r18
	lsl r0
	sbc r19,r19
	cp r24,r18
	cpc r25,r19
	brne .L92
	.loc 1 272 0
	subi r20,-1
	sbci r21,-1
	std Z+5,r21
	std Z+4,r20
	ldd r18,Z+2
	ldd r19,Z+3
	cp r20,r18
	cpc r21,r19
	breq .L111
.L94:
.LBE31:
	.loc 1 269 0 discriminator 2
	adiw r30,6
.LVL123:
.L91:
	.loc 1 269 0 is_stmt 0 discriminator 1
	cp r30,r8
	cpc r31,r9
	brlo .L101
.LVL124:
.L109:
.LBE30:
	.loc 1 265 0 is_stmt 1
	movw r24,r16
	call _ZN6Stream9timedReadEv
.LVL125:
	.loc 1 266 0
	sbrc r25,7
	rjmp .L103
	movw r30,r28
	rjmp .L91
.LVL126:
.L111:
.LBB34:
.LBB33:
	.loc 1 273 0
	sub r30,r28
	sbc r31,r29
	asr r31
	ror r30
	ldi r18,lo8(-85)
	ldi r19,lo8(-86)
	mul r30,r18
	movw r24,r0
	mul r30,r19
	add r25,r0
	mul r31,r18
	add r25,r0
	clr r1
	rjmp .L89
.LVL127:
.L92:
	.loc 1 282 0
	cp r20,__zero_reg__
	cpc r21,__zero_reg__
	breq .L94
.L107:
.LBB32:
	.loc 1 287 0
	ldd r12,Z+4
	ldd r13,Z+5
	movw r18,r12
	subi r18,1
	sbc r19,__zero_reg__
	std Z+5,r19
	std Z+4,r18
	.loc 1 289 0
	movw r26,r22
	add r26,r18
	adc r27,r19
	ld r26,X
	mov __tmp_reg__,r26
	lsl r0
	sbc r27,r27
	cp r24,r26
	cpc r25,r27
	brne .L96
	.loc 1 293 0
	cp r18,__zero_reg__
	cpc r19,__zero_reg__
	breq .L110
.LVL128:
	movw r10,r22
	.loc 1 299 0
	movw r14,r20
	sub r14,r18
	sbc r15,r19
.LVL129:
	add r14,r22
	adc r15,r23
.LVL130:
	.loc 1 301 0
	mov r4,__zero_reg__
	mov r5,__zero_reg__
.LVL131:
.L99:
	.loc 1 302 0
	movw r26,r10
	ld r6,X+
	movw r10,r26
	movw r26,r14
	ld r7,X+
	movw r14,r26
	cpse r6,r7
	rjmp .L98
	.loc 1 301 0 discriminator 2
	ldi r27,-1
	sub r4,r27
	sbc r5,r27
.LVL132:
	cp r4,r18
	cpc r5,r19
	brlo .L99
.L98:
	.loc 1 308 0
	cp r4,r18
	cpc r5,r19
	brne .L107
.LVL133:
.L110:
	.loc 1 309 0
	std Z+5,r13
	std Z+4,r12
	.loc 1 310 0
	rjmp .L94
.L96:
.LBE32:
	.loc 1 286 0
	or r18,r19
	brne .L107
	rjmp .L94
.LVL134:
.L103:
.LBE33:
.LBE34:
	.loc 1 267 0
	ldi r24,lo8(-1)
	ldi r25,lo8(-1)
.LVL135:
.L89:
/* epilogue start */
.LBE29:
	.loc 1 319 0
	pop r29
	pop r28
.LVL136:
	pop r17
	pop r16
.LVL137:
	pop r15
	pop r14
	pop r13
	pop r12
	pop r11
	pop r10
	pop r9
	pop r8
	pop r7
	pop r6
	pop r5
	pop r4
	ret
	.cfi_endproc
.LFE126:
	.size	_ZN6Stream9findMultiEPNS_11MultiTargetEi, .-_ZN6Stream9findMultiEPNS_11MultiTargetEi
	.section	.text._ZN6Stream9findUntilEPcjS0_j.part.0,"ax",@progbits
	.type	_ZN6Stream9findUntilEPcjS0_j.part.0, @function
_ZN6Stream9findUntilEPcjS0_j.part.0:
.LFB127:
	.loc 1 114 0
	.cfi_startproc
.LVL138:
	push r28
.LCFI84:
	.cfi_def_cfa_offset 3
	.cfi_offset 28, -2
	push r29
.LCFI85:
	.cfi_def_cfa_offset 4
	.cfi_offset 29, -3
	rcall .
	rcall .
	rcall .
.LCFI86:
	.cfi_def_cfa_offset 10
	in r28,__SP_L__
	in r29,__SP_H__
.LCFI87:
	.cfi_def_cfa_register 28
/* prologue: function */
/* frame size = 6 */
/* stack size = 8 */
.L__stack_usage = 8
.LVL139:
.LBB35:
	.loc 1 117 0
	movw r30,r28
	adiw r30,1
	ldi r18,lo8(6)
	movw r26,r30
	0:
	st X+,__zero_reg__
	dec r18
	brne 0b
	std Y+2,r23
	std Y+1,r22
	std Y+4,r21
	std Y+3,r20
	.loc 1 118 0
	ldi r20,lo8(1)
	ldi r21,0
.LVL140:
	movw r22,r30
.LVL141:
	call _ZN6Stream9findMultiEPNS_11MultiTargetEi
.LVL142:
	ldi r18,lo8(1)
	or r24,r25
	breq .L113
	ldi r18,0
.L113:
.LBE35:
	.loc 1 123 0
	mov r24,r18
/* epilogue start */
	adiw r28,6
	in __tmp_reg__,__SREG__
	cli
	out __SP_H__,r29
	out __SREG__,__tmp_reg__
	out __SP_L__,r28
	pop r29
	pop r28
	ret
	.cfi_endproc
.LFE127:
	.size	_ZN6Stream9findUntilEPcjS0_j.part.0, .-_ZN6Stream9findUntilEPcjS0_j.part.0
	.section	.text._ZN6Stream4findEPcj,"ax",@progbits
.global	_ZN6Stream4findEPcj
	.type	_ZN6Stream4findEPcj, @function
_ZN6Stream4findEPcj:
.LFB117:
	.loc 1 101 0
	.cfi_startproc
.LVL143:
/* prologue: function */
/* frame size = 0 */
/* stack size = 0 */
.L__stack_usage = 0
.LBB40:
.LBB41:
	jmp _ZN6Stream9findUntilEPcjS0_j.part.0
.LVL144:
.LBE41:
.LBE40:
	.cfi_endproc
.LFE117:
	.size	_ZN6Stream4findEPcj, .-_ZN6Stream4findEPcj
	.section	.text._ZN6Stream4findEPc,"ax",@progbits
.global	_ZN6Stream4findEPc
	.type	_ZN6Stream4findEPc, @function
_ZN6Stream4findEPc:
.LFB116:
	.loc 1 94 0
	.cfi_startproc
.LVL145:
/* prologue: function */
/* frame size = 0 */
/* stack size = 0 */
.L__stack_usage = 0
	.loc 1 95 0
	movw r30,r22
	0:
	ld __tmp_reg__,Z+
	tst __tmp_reg__
	brne 0b
	sbiw r30,1
	movw r20,r30
	sub r20,r22
	sbc r21,r23
.LVL146:
.LBB46:
.LBB47:
	jmp _ZN6Stream9findUntilEPcjS0_j.part.0
.LVL147:
.LBE47:
.LBE46:
	.cfi_endproc
.LFE116:
	.size	_ZN6Stream4findEPc, .-_ZN6Stream4findEPc
	.section	.text._ZN6Stream9findUntilEPcjS0_j,"ax",@progbits
.global	_ZN6Stream9findUntilEPcjS0_j
	.type	_ZN6Stream9findUntilEPcjS0_j, @function
_ZN6Stream9findUntilEPcjS0_j:
.LFB119:
	.loc 1 115 0
	.cfi_startproc
.LVL148:
	push r15
.LCFI88:
	.cfi_def_cfa_offset 3
	.cfi_offset 15, -2
	push r16
.LCFI89:
	.cfi_def_cfa_offset 4
	.cfi_offset 16, -3
	push r17
.LCFI90:
	.cfi_def_cfa_offset 5
	.cfi_offset 17, -4
	push r28
.LCFI91:
	.cfi_def_cfa_offset 6
	.cfi_offset 28, -5
	push r29
.LCFI92:
	.cfi_def_cfa_offset 7
	.cfi_offset 29, -6
	in r28,__SP_L__
	in r29,__SP_H__
.LCFI93:
	.cfi_def_cfa_register 28
	sbiw r28,12
.LCFI94:
	.cfi_def_cfa_offset 19
	in __tmp_reg__,__SREG__
	cli
	out __SP_H__,r29
	out __SREG__,__tmp_reg__
	out __SP_L__,r28
/* prologue: function */
/* frame size = 12 */
/* stack size = 17 */
.L__stack_usage = 17
.LBB48:
	.loc 1 116 0
	cp r18,__zero_reg__
	cpc r19,__zero_reg__
	brne .L120
.LBE48:
	call _ZN6Stream9findUntilEPcjS0_j.part.0
.LVL149:
	mov r18,r24
	rjmp .L121
.LVL150:
.L120:
.LBB50:
.LBB49:
	.loc 1 120 0
	movw r30,r28
	adiw r30,1
	ldi r26,lo8(12)
	mov r15,r26
	movw r26,r30
	0:
	st X+,__zero_reg__
	dec r15
	brne 0b
	std Y+2,r23
	std Y+1,r22
	std Y+4,r21
	std Y+3,r20
	std Y+8,r19
	std Y+7,r18
	std Y+10,r17
	std Y+9,r16
	.loc 1 121 0
	ldi r20,lo8(2)
	ldi r21,0
.LVL151:
	movw r22,r30
.LVL152:
	call _ZN6Stream9findMultiEPNS_11MultiTargetEi
.LVL153:
	ldi r18,lo8(1)
	or r24,r25
	breq .L121
	ldi r18,0
.L121:
.LBE49:
.LBE50:
	.loc 1 123 0 discriminator 1
	mov r24,r18
/* epilogue start */
	adiw r28,12
	in __tmp_reg__,__SREG__
	cli
	out __SP_H__,r29
	out __SREG__,__tmp_reg__
	out __SP_L__,r28
	pop r29
	pop r28
	pop r17
	pop r16
.LVL154:
	pop r15
	ret
	.cfi_endproc
.LFE119:
	.size	_ZN6Stream9findUntilEPcjS0_j, .-_ZN6Stream9findUntilEPcjS0_j
	.section	.text._ZN6Stream9findUntilEPcS0_,"ax",@progbits
.global	_ZN6Stream9findUntilEPcS0_
	.type	_ZN6Stream9findUntilEPcS0_, @function
_ZN6Stream9findUntilEPcS0_:
.LFB118:
	.loc 1 107 0
	.cfi_startproc
.LVL155:
	push r16
.LCFI95:
	.cfi_def_cfa_offset 3
	.cfi_offset 16, -2
	push r17
.LCFI96:
	.cfi_def_cfa_offset 4
	.cfi_offset 17, -3
/* prologue: function */
/* frame size = 0 */
/* stack size = 2 */
.L__stack_usage = 2
	movw r18,r20
	.loc 1 108 0
	movw r30,r20
	0:
	ld __tmp_reg__,Z+
	tst __tmp_reg__
	brne 0b
	sbiw r30,1
	movw r16,r30
	sub r16,r20
	sbc r17,r21
	movw r30,r22
	0:
	ld __tmp_reg__,Z+
	tst __tmp_reg__
	brne 0b
	sbiw r30,1
	movw r20,r30
.LVL156:
	sub r20,r22
	sbc r21,r23
	call _ZN6Stream9findUntilEPcjS0_j
.LVL157:
/* epilogue start */
	.loc 1 109 0
	pop r17
	pop r16
	ret
	.cfi_endproc
.LFE118:
	.size	_ZN6Stream9findUntilEPcS0_, .-_ZN6Stream9findUntilEPcS0_
	.text
.Letext0:
	.file 3 "/home/yvonne/Downloads/arduino-1.8.5/hardware/tools/avr/lib/gcc/avr/4.9.2/include/stddef.h"
	.file 4 "/home/yvonne/Downloads/arduino-1.8.5/hardware/tools/avr/avr/include/stdint.h"
	.file 5 "/home/yvonne/Downloads/arduino-1.8.5/hardware/arduino/avr/cores/arduino/Stream.h"
	.file 6 "/home/yvonne/Downloads/arduino-1.8.5/hardware/arduino/avr/cores/arduino/Print.h"
	.file 7 "/home/yvonne/Downloads/arduino-1.8.5/hardware/arduino/avr/variants/standard/pins_arduino.h"
	.file 8 "<built-in>"
	.file 9 "/home/yvonne/Downloads/arduino-1.8.5/hardware/arduino/avr/cores/arduino/Arduino.h"