	.file	"wiring_analog.c"
__SP_H__ = 0x3e
__SP_L__ = 0x3d
__SREG__ = 0x3f
__tmp_reg__ = 0
__zero_reg__ = 1
	.text
.Ltext0:
	.cfi_sections	.debug_frame
	.section	.text.analogReference,"ax",@progbits
.global	analogReference
	.type	analogReference, @function
analogReference:
.LFB8:
	.file 1 "/home/yvonne/Downloads/arduino-1.8.5/hardware/arduino/avr/cores/arduino/wiring_analog.c"
	.loc 1 31 0
	.cfi_startproc
.LVL0:
/* prologue: function */
/* frame size = 0 */
/* stack size = 0 */
.L__stack_usage = 0
	.loc 1 35 0
	sts analog_reference,r24
	ret
	.cfi_endproc
.LFE8:
	.size	analogReference, .-analogReference
	.section	.text.analogRead,"ax",@progbits
.global	analogRead
	.type	analogRead, @function
analogRead:
.LFB9:
	.loc 1 39 0
	.cfi_startproc
.LVL1:
/* prologue: function */
/* frame size = 0 */
/* stack size = 0 */
.L__stack_usage = 0
	.loc 1 54 0
	cpi r24,lo8(14)
	brlo .L3
	.loc 1 54 0 is_stmt 0 discriminator 1
	subi r24,lo8(-(-14))
.LVL2:
.L3:
	.loc 1 70 0 is_stmt 1
	andi r24,lo8(7)
.LVL3:
	lds r18,analog_reference
	ldi r25,lo8(64)
	mul r18,r25
	movw r18,r0
	clr __zero_reg__
	or r24,r18
	sts 124,r24
	.loc 1 79 0
	lds r24,122
	ori r24,lo8(64)
	sts 122,r24
.L4:
	.loc 1 82 0 discriminator 1
	lds r24,122
	sbrc r24,6
	rjmp .L4
	.loc 1 88 0
	lds r24,120
.LVL4:
	.loc 1 89 0
	lds r18,121
.LVL5:
	.loc 1 97 0
	ldi r25,0
	.loc 1 98 0
	or r25,r18
	ret
	.cfi_endproc
.LFE9:
	.size	analogRead, .-analogRead
	.section	.text.analogWrite,"ax",@progbits
.global	analogWrite
	.type	analogWrite, @function
analogWrite:
.LFB10:
	.loc 1 105 0
	.cfi_startproc
.LVL6:
	push r17
.LCFI0:
	.cfi_def_cfa_offset 3
	.cfi_offset 17, -2
	push r28
.LCFI1:
	.cfi_def_cfa_offset 4
	.cfi_offset 28, -3
	push r29
.LCFI2:
	.cfi_def_cfa_offset 5
	.cfi_offset 29, -4
/* prologue: function */
/* frame size = 0 */
/* stack size = 3 */
.L__stack_usage = 3
	mov r17,r24
	movw r28,r22
	.loc 1 111 0
	ldi r22,lo8(1)
.LVL7:
	call pinMode
.LVL8:
	.loc 1 112 0
	sbiw r28,0
	brne .L8
.L19:
	.loc 1 114 0
	ldi r22,0
	rjmp .L21
.L8:
	.loc 1 116 0
	cpi r28,-1
	cpc r29,__zero_reg__
	brne .L9
.L20:
	.loc 1 118 0
	ldi r22,lo8(1)
.L21:
	mov r24,r17
/* epilogue start */
	.loc 1 293 0
	pop r29
	pop r28
.LVL9:
	pop r17
.LVL10:
	.loc 1 118 0
	jmp digitalWrite
.LVL11:
.L9:
.LBB2:
	.loc 1 122 0
	mov r30,r17
	ldi r31,0
	subi r30,lo8(-(digital_pin_to_timer_PGM))
	sbci r31,hi8(-(digital_pin_to_timer_PGM))
/* #APP */
 ;  122 "/home/yvonne/Downloads/arduino-1.8.5/hardware/arduino/avr/cores/arduino/wiring_analog.c" 1
	lpm r30, Z
	
 ;  0 "" 2
.LVL12:
/* #NOAPP */
.LBE2:
	cpi r30,lo8(3)
	breq .L11
	brsh .L12
	cpi r30,lo8(1)
	breq .L13
	cpi r30,lo8(2)
	brne .L10
	.loc 1 144 0
	in r24,0x24
	ori r24,lo8(32)
	out 0x24,r24
	.loc 1 145 0
	out 0x28,r28
	.loc 1 146 0
	rjmp .L7
.L12:
	.loc 1 122 0
	cpi r30,lo8(7)
	breq .L15
	cpi r30,lo8(8)
	breq .L16
	cpi r30,lo8(4)
	brne .L10
	.loc 1 160 0
	lds r24,128
	ori r24,lo8(32)
	sts 128,r24
	.loc 1 161 0
	sts 138+1,r29
	sts 138,r28
	.loc 1 162 0
	rjmp .L7
.L13:
	.loc 1 136 0
	in r24,0x24
	ori r24,lo8(-128)
	out 0x24,r24
	.loc 1 137 0
	out 0x27,r28
	.loc 1 138 0
	rjmp .L7
.L11:
	.loc 1 152 0
	lds r24,128
	ori r24,lo8(-128)
	sts 128,r24
	.loc 1 153 0
	sts 136+1,r29
	sts 136,r28
	.loc 1 154 0
	rjmp .L7
.L15:
	.loc 1 184 0
	lds r24,176
	ori r24,lo8(-128)
	sts 176,r24
	.loc 1 185 0
	sts 179,r28
	.loc 1 186 0
	rjmp .L7
.L16:
	.loc 1 192 0
	lds r24,176
	ori r24,lo8(32)
	sts 176,r24
	.loc 1 193 0
	sts 180,r28
	.loc 1 194 0
	rjmp .L7
.L10:
	.loc 1 286 0
	cpi r28,-128
	cpc r29,__zero_reg__
	brlt .+2
	rjmp .L20
	rjmp .L19
.L7:
/* epilogue start */
	.loc 1 293 0
	pop r29
	pop r28
.LVL13:
	pop r17
.LVL14:
	ret
	.cfi_endproc
.LFE10:
	.size	analogWrite, .-analogWrite
.global	analog_reference
	.section	.data.analog_reference,"aw",@progbits
	.type	analog_reference, @object
	.size	analog_reference, 1
analog_reference:
	.byte	1
	.text
.Letext0:
	.file 2 "/home/yvonne/Downloads/arduino-1.8.5/hardware/tools/avr/avr/include/stdint.h"
	.file 3 "/home/yvonne/Downloads/arduino-1.8.5/hardware/arduino/avr/variants/standard/pins_arduino.h"
	.file 4 "/home/yvonne/Downloads/arduino-1.8.5/hardware/arduino/avr/cores/arduino/Arduino.h"