	.file	"WString.cpp"
__SP_H__ = 0x3e
__SP_L__ = 0x3d
__SREG__ = 0x3f
__tmp_reg__ = 0
__zero_reg__ = 1
	.text
.Ltext0:
	.cfi_sections	.debug_frame
	.section	.text._ZNK6String14StringIfHelperEv,"axG",@progbits,_ZNK6String14StringIfHelperEv,comdat
	.weak	_ZNK6String14StringIfHelperEv
	.type	_ZNK6String14StringIfHelperEv, @function
_ZNK6String14StringIfHelperEv:
.LFB5:
	.file 1 "/home/yvonne/Downloads/arduino-1.8.5/hardware/arduino/avr/cores/arduino/WString.h"
	.loc 1 51 0
	.cfi_startproc
.LVL0:
/* prologue: function */
/* frame size = 0 */
/* stack size = 0 */
.L__stack_usage = 0
	ret
	.cfi_endproc
.LFE5:
	.size	_ZNK6String14StringIfHelperEv, .-_ZNK6String14StringIfHelperEv
	.section	.text._ZN6StringD2Ev,"ax",@progbits
.global	_ZN6StringD2Ev
	.type	_ZN6StringD2Ev, @function
_ZN6StringD2Ev:
.LFB100:
	.file 2 "/home/yvonne/Downloads/arduino-1.8.5/hardware/arduino/avr/cores/arduino/WString.cpp"
	.loc 2 122 0
	.cfi_startproc
.LVL1:
/* prologue: function */
/* frame size = 0 */
/* stack size = 0 */
.L__stack_usage = 0
.LBB111:
	.loc 2 124 0
	movw r30,r24
	ld r24,Z
	ldd r25,Z+1
.LVL2:
	jmp free
.LVL3:
.LBE111:
	.cfi_endproc
.LFE100:
	.size	_ZN6StringD2Ev, .-_ZN6StringD2Ev
.global	_ZN6StringD1Ev
	.set	_ZN6StringD1Ev,_ZN6StringD2Ev
	.section	.text._ZN6String10invalidateEv,"ax",@progbits
.global	_ZN6String10invalidateEv
	.type	_ZN6String10invalidateEv, @function
_ZN6String10invalidateEv:
.LFB103:
	.loc 2 139 0
	.cfi_startproc
.LVL4:
	push r28
.LCFI0:
	.cfi_def_cfa_offset 3
	.cfi_offset 28, -2
	push r29
.LCFI1:
	.cfi_def_cfa_offset 4
	.cfi_offset 29, -3
/* prologue: function */
/* frame size = 0 */
/* stack size = 2 */
.L__stack_usage = 2
	movw r28,r24
	.loc 2 140 0
	ld r24,Y
	ldd r25,Y+1
.LVL5:
	sbiw r24,0
	breq .L4
	.loc 2 140 0 is_stmt 0 discriminator 1
	call free
.LVL6:
.L4:
	.loc 2 141 0 is_stmt 1
	std Y+1,__zero_reg__
	st Y,__zero_reg__
	.loc 2 142 0
	std Y+5,__zero_reg__
	std Y+4,__zero_reg__
	std Y+3,__zero_reg__
	std Y+2,__zero_reg__
/* epilogue start */
	.loc 2 143 0
	pop r29
	pop r28
.LVL7:
	ret
	.cfi_endproc
.LFE103:
	.size	_ZN6String10invalidateEv, .-_ZN6String10invalidateEv
	.section	.text._ZN6String12changeBufferEj,"ax",@progbits
.global	_ZN6String12changeBufferEj
	.type	_ZN6String12changeBufferEj, @function
_ZN6String12changeBufferEj:
.LFB105:
	.loc 2 156 0
	.cfi_startproc
.LVL8:
	push r16
.LCFI2:
	.cfi_def_cfa_offset 3
	.cfi_offset 16, -2
	push r17
.LCFI3:
	.cfi_def_cfa_offset 4
	.cfi_offset 17, -3
	push r28
.LCFI4:
	.cfi_def_cfa_offset 5
	.cfi_offset 28, -4
	push r29
.LCFI5:
	.cfi_def_cfa_offset 6
	.cfi_offset 29, -5
/* prologue: function */
/* frame size = 0 */
/* stack size = 4 */
.L__stack_usage = 4
	movw r28,r24
	movw r16,r22
.LBB112:
	.loc 2 157 0
	subi r22,-1
	sbci r23,-1
.LVL9:
	ld r24,Y
	ldd r25,Y+1
.LVL10:
	call realloc
.LVL11:
	.loc 2 158 0
	sbiw r24,0
	breq .L11
	.loc 2 159 0
	std Y+1,r25
	st Y,r24
	.loc 2 160 0
	std Y+3,r17
	std Y+2,r16
	.loc 2 161 0
	ldi r24,lo8(1)
.LVL12:
	rjmp .L10
.LVL13:
.L11:
	.loc 2 163 0
	ldi r24,0
.LVL14:
.L10:
/* epilogue start */
.LBE112:
	.loc 2 164 0
	pop r29
	pop r28
.LVL15:
	pop r17
	pop r16
.LVL16:
	ret
	.cfi_endproc
.LFE105:
	.size	_ZN6String12changeBufferEj, .-_ZN6String12changeBufferEj
	.section	.text._ZN6String7reserveEj,"ax",@progbits
.global	_ZN6String7reserveEj
	.type	_ZN6String7reserveEj, @function
_ZN6String7reserveEj:
.LFB104:
	.loc 2 146 0
	.cfi_startproc
.LVL17:
	push r28
.LCFI6:
	.cfi_def_cfa_offset 3
	.cfi_offset 28, -2
	push r29
.LCFI7:
	.cfi_def_cfa_offset 4
	.cfi_offset 29, -3
/* prologue: function */
/* frame size = 0 */
/* stack size = 2 */
.L__stack_usage = 2
	movw r28,r24
	.loc 2 147 0
	ld r24,Y
	ldd r25,Y+1
.LVL18:
	or r24,r25
	breq .L13
	.loc 2 147 0 is_stmt 0 discriminator 1
	ldd r24,Y+2
	ldd r25,Y+3
	cp r24,r22
	cpc r25,r23
	brsh .L22
.L13:
	.loc 2 148 0 is_stmt 1
	movw r24,r28
	call _ZN6String12changeBufferEj
.LVL19:
	tst r24
	breq .L14
.LVL20:
.LBB115:
.LBB116:
	.loc 2 149 0
	ldd r24,Y+4
	ldd r25,Y+5
	or r24,r25
	brne .L22
	ld r30,Y
	ldd r31,Y+1
	st Z,__zero_reg__
.LVL21:
.L22:
	ldi r24,lo8(1)
.L14:
/* epilogue start */
.LBE116:
.LBE115:
	.loc 2 153 0
	pop r29
	pop r28
.LVL22:
	ret
	.cfi_endproc
.LFE104:
	.size	_ZN6String7reserveEj, .-_ZN6String7reserveEj
	.section	.text._ZN6String4copyEPKcj,"ax",@progbits
.global	_ZN6String4copyEPKcj
	.type	_ZN6String4copyEPKcj, @function
_ZN6String4copyEPKcj:
.LFB106:
	.loc 2 171 0
	.cfi_startproc
.LVL23:
	push r14
.LCFI8:
	.cfi_def_cfa_offset 3
	.cfi_offset 14, -2
	push r15
.LCFI9:
	.cfi_def_cfa_offset 4
	.cfi_offset 15, -3
	push r16
.LCFI10:
	.cfi_def_cfa_offset 5
	.cfi_offset 16, -4
	push r17
.LCFI11:
	.cfi_def_cfa_offset 6
	.cfi_offset 17, -5
	push r28
.LCFI12:
	.cfi_def_cfa_offset 7
	.cfi_offset 28, -6
	push r29
.LCFI13:
	.cfi_def_cfa_offset 8
	.cfi_offset 29, -7
/* prologue: function */
/* frame size = 0 */
/* stack size = 6 */
.L__stack_usage = 6
	movw r28,r24
	movw r14,r22
	movw r16,r20
	.loc 2 172 0
	movw r22,r20
.LVL24:
	call _ZN6String7reserveEj
.LVL25:
	cpse r24,__zero_reg__
	rjmp .L24
	.loc 2 173 0
	movw r24,r28
	call _ZN6String10invalidateEv
.LVL26:
	.loc 2 174 0
	rjmp .L25
.L24:
	.loc 2 176 0
	std Y+5,r17
	std Y+4,r16
	.loc 2 177 0
	movw r22,r14
	ld r24,Y
	ldd r25,Y+1
	call strcpy
.LVL27:
.L25:
	.loc 2 179 0
	movw r24,r28
/* epilogue start */
	pop r29
	pop r28
.LVL28:
	pop r17
	pop r16
.LVL29:
	pop r15
	pop r14
.LVL30:
	ret
	.cfi_endproc
.LFE106:
	.size	_ZN6String4copyEPKcj, .-_ZN6String4copyEPKcj
	.section	.text._ZN6StringC2EPKc,"ax",@progbits
.global	_ZN6StringC2EPKc
	.type	_ZN6StringC2EPKc, @function
_ZN6StringC2EPKc:
.LFB61:
	.loc 2 28 0
	.cfi_startproc
.LVL31:
/* prologue: function */
/* frame size = 0 */
/* stack size = 0 */
.L__stack_usage = 0
.LBB117:
.LBB118:
.LBB119:
	.loc 2 133 0
	movw r30,r24
	std Z+1,__zero_reg__
	st Z,__zero_reg__
	.loc 2 134 0
	std Z+3,__zero_reg__
	std Z+2,__zero_reg__
	.loc 2 135 0
	std Z+5,__zero_reg__
	std Z+4,__zero_reg__
.LBE119:
.LBE118:
	.loc 2 31 0
	cp r22,__zero_reg__
	cpc r23,__zero_reg__
	breq .L26
	.loc 2 31 0 is_stmt 0 discriminator 1
	movw r30,r22
	0:
	ld __tmp_reg__,Z+
	tst __tmp_reg__
	brne 0b
	sbiw r30,1
	movw r20,r30
	sub r20,r22
	sbc r21,r23
	jmp _ZN6String4copyEPKcj
.LVL32:
.L26:
	ret
.LBE117:
	.cfi_endproc
.LFE61:
	.size	_ZN6StringC2EPKc, .-_ZN6StringC2EPKc
.global	_ZN6StringC1EPKc
	.set	_ZN6StringC1EPKc,_ZN6StringC2EPKc
	.section	.text._ZN6String4copyEPK19__FlashStringHelperj,"ax",@progbits
.global	_ZN6String4copyEPK19__FlashStringHelperj
	.type	_ZN6String4copyEPK19__FlashStringHelperj, @function
_ZN6String4copyEPK19__FlashStringHelperj:
.LFB107:
	.loc 2 182 0 is_stmt 1
	.cfi_startproc
.LVL33:
	push r14
.LCFI14:
	.cfi_def_cfa_offset 3
	.cfi_offset 14, -2
	push r15
.LCFI15:
	.cfi_def_cfa_offset 4
	.cfi_offset 15, -3
	push r16
.LCFI16:
	.cfi_def_cfa_offset 5
	.cfi_offset 16, -4
	push r17
.LCFI17:
	.cfi_def_cfa_offset 6
	.cfi_offset 17, -5
	push r28
.LCFI18:
	.cfi_def_cfa_offset 7
	.cfi_offset 28, -6
	push r29
.LCFI19:
	.cfi_def_cfa_offset 8
	.cfi_offset 29, -7
/* prologue: function */
/* frame size = 0 */
/* stack size = 6 */
.L__stack_usage = 6
	movw r28,r24
	movw r14,r22
	movw r16,r20
	.loc 2 183 0
	movw r22,r20
.LVL34:
	call _ZN6String7reserveEj
.LVL35:
	cpse r24,__zero_reg__
	rjmp .L29
	.loc 2 184 0
	movw r24,r28
	call _ZN6String10invalidateEv
.LVL36:
	.loc 2 185 0
	rjmp .L30
.L29:
	.loc 2 187 0
	std Y+5,r17
	std Y+4,r16
	.loc 2 188 0
	movw r22,r14
	ld r24,Y
	ldd r25,Y+1
	call strcpy_P
.LVL37:
.L30:
	.loc 2 190 0
	movw r24,r28
/* epilogue start */
	pop r29
	pop r28
.LVL38:
	pop r17
	pop r16
.LVL39:
	pop r15
	pop r14
.LVL40:
	ret
	.cfi_endproc
.LFE107:
	.size	_ZN6String4copyEPK19__FlashStringHelperj, .-_ZN6String4copyEPK19__FlashStringHelperj
	.section	.text._ZN6String4moveERS_,"ax",@progbits
.global	_ZN6String4moveERS_
	.type	_ZN6String4moveERS_, @function
_ZN6String4moveERS_:
.LFB108:
	.loc 2 194 0
	.cfi_startproc
.LVL41:
	push r16
.LCFI20:
	.cfi_def_cfa_offset 3
	.cfi_offset 16, -2
	push r17
.LCFI21:
	.cfi_def_cfa_offset 4
	.cfi_offset 17, -3
	push r28
.LCFI22:
	.cfi_def_cfa_offset 5
	.cfi_offset 28, -4
	push r29
.LCFI23:
	.cfi_def_cfa_offset 6
	.cfi_offset 29, -5
/* prologue: function */
/* frame size = 0 */
/* stack size = 4 */
.L__stack_usage = 4
	movw r16,r24
	movw r28,r22
	.loc 2 195 0
	movw r30,r24
	ld r24,Z
	ldd r25,Z+1
.LVL42:
	sbiw r24,0
	breq .L32
	ld r22,Y
	ldd r23,Y+1
.LVL43:
.LBB124:
.LBB125:
	.loc 1 138 0
	cp r22,__zero_reg__
	cpc r23,__zero_reg__
	breq .L33
.LBE125:
.LBE124:
	.loc 2 196 0
	ldi r18,lo8(gs(_ZNK6String14StringIfHelperEv))
	ldi r19,hi8(gs(_ZNK6String14StringIfHelperEv))
	or r18,r19
	breq .L33
	.loc 2 196 0 is_stmt 0 discriminator 3
	ldd r20,Z+2
	ldd r21,Z+3
	ldd r18,Y+4
	ldd r19,Y+5
	cp r20,r18
	cpc r21,r19
	brlo .L33
.LVL44:
.LBB126:
.LBB127:
	.loc 2 197 0 is_stmt 1
	call strcpy
.LVL45:
	.loc 2 198 0
	ldd r24,Y+4
	ldd r25,Y+5
	movw r30,r16
	std Z+5,r25
	std Z+4,r24
	rjmp .L45
.LVL46:
.L33:
.LBE127:
.LBE126:
	.loc 2 202 0
	call free
.LVL47:
.L32:
	.loc 2 205 0
	ld r24,Y
	ldd r25,Y+1
	movw r30,r16
	std Z+1,r25
	st Z,r24
	.loc 2 206 0
	ldd r24,Y+2
	ldd r25,Y+3
	std Z+3,r25
	std Z+2,r24
	.loc 2 207 0
	ldd r24,Y+4
	ldd r25,Y+5
	std Z+5,r25
	std Z+4,r24
	.loc 2 208 0
	std Y+1,__zero_reg__
	st Y,__zero_reg__
	.loc 2 209 0
	std Y+3,__zero_reg__
	std Y+2,__zero_reg__
.L45:
.LBB129:
.LBB128:
	.loc 2 199 0
	std Y+5,__zero_reg__
	std Y+4,__zero_reg__
/* epilogue start */
.LBE128:
.LBE129:
	.loc 2 211 0
	pop r29
	pop r28
.LVL48:
	pop r17
	pop r16
.LVL49:
	ret
	.cfi_endproc
.LFE108:
	.size	_ZN6String4moveERS_, .-_ZN6String4moveERS_
	.section	.text._ZN6StringC2EOS_,"ax",@progbits
.global	_ZN6StringC2EOS_
	.type	_ZN6StringC2EOS_, @function
_ZN6StringC2EOS_:
.LFB70:
	.loc 2 47 0
	.cfi_startproc
.LVL50:
/* prologue: function */
/* frame size = 0 */
/* stack size = 0 */
.L__stack_usage = 0
.LBB130:
.LBB131:
.LBB132:
	.loc 2 133 0
	movw r30,r24
	std Z+1,__zero_reg__
	st Z,__zero_reg__
	.loc 2 134 0
	std Z+3,__zero_reg__
	std Z+2,__zero_reg__
	.loc 2 135 0
	std Z+5,__zero_reg__
	std Z+4,__zero_reg__
.LBE132:
.LBE131:
	.loc 2 50 0
	jmp _ZN6String4moveERS_
.LVL51:
.LBE130:
	.cfi_endproc
.LFE70:
	.size	_ZN6StringC2EOS_, .-_ZN6StringC2EOS_
.global	_ZN6StringC1EOS_
	.set	_ZN6StringC1EOS_,_ZN6StringC2EOS_
	.section	.text._ZN6StringC2EO15StringSumHelper,"ax",@progbits
.global	_ZN6StringC2EO15StringSumHelper
	.type	_ZN6StringC2EO15StringSumHelper, @function
_ZN6StringC2EO15StringSumHelper:
.LFB73:
	.loc 2 52 0
	.cfi_startproc
.LVL52:
/* prologue: function */
/* frame size = 0 */
/* stack size = 0 */
.L__stack_usage = 0
.LBB133:
.LBB134:
.LBB135:
	.loc 2 133 0
	movw r30,r24
	std Z+1,__zero_reg__
	st Z,__zero_reg__
	.loc 2 134 0
	std Z+3,__zero_reg__
	std Z+2,__zero_reg__
	.loc 2 135 0
	std Z+5,__zero_reg__
	std Z+4,__zero_reg__
.LBE135:
.LBE134:
	.loc 2 55 0
	jmp _ZN6String4moveERS_
.LVL53:
.LBE133:
	.cfi_endproc
.LFE73:
	.size	_ZN6StringC2EO15StringSumHelper, .-_ZN6StringC2EO15StringSumHelper
.global	_ZN6StringC1EO15StringSumHelper
	.set	_ZN6StringC1EO15StringSumHelper,_ZN6StringC2EO15StringSumHelper
	.section	.text._ZN6StringaSERKS_,"ax",@progbits
.global	_ZN6StringaSERKS_
	.type	_ZN6StringaSERKS_, @function
_ZN6StringaSERKS_:
.LFB109:
	.loc 2 215 0
	.cfi_startproc
.LVL54:
	push r28
.LCFI24:
	.cfi_def_cfa_offset 3
	.cfi_offset 28, -2
	push r29
.LCFI25:
	.cfi_def_cfa_offset 4
	.cfi_offset 29, -3
/* prologue: function */
/* frame size = 0 */
/* stack size = 2 */
.L__stack_usage = 2
	movw r28,r24
	movw r30,r22
	.loc 2 216 0
	cp r24,r22
	cpc r25,r23
	breq .L49
	.loc 2 218 0
	ld r22,Z
	ldd r23,Z+1
.LVL55:
	cp r22,__zero_reg__
	cpc r23,__zero_reg__
	breq .L50
	.loc 2 218 0 is_stmt 0 discriminator 1
	ldd r20,Z+4
	ldd r21,Z+5
	call _ZN6String4copyEPKcj
.LVL56:
	rjmp .L49
.LVL57:
.L50:
	.loc 2 219 0 is_stmt 1
	call _ZN6String10invalidateEv
.LVL58:
.L49:
	.loc 2 222 0
	movw r24,r28
/* epilogue start */
	pop r29
	pop r28
.LVL59:
	ret
	.cfi_endproc
.LFE109:
	.size	_ZN6StringaSERKS_, .-_ZN6StringaSERKS_
	.section	.text._ZN6StringC2ERKS_,"ax",@progbits
.global	_ZN6StringC2ERKS_
	.type	_ZN6StringC2ERKS_, @function
_ZN6StringC2ERKS_:
.LFB64:
	.loc 2 34 0
	.cfi_startproc
.LVL60:
/* prologue: function */
/* frame size = 0 */
/* stack size = 0 */
.L__stack_usage = 0
.LBB136:
.LBB137:
.LBB138:
	.loc 2 133 0
	movw r30,r24
	std Z+1,__zero_reg__
	st Z,__zero_reg__
	.loc 2 134 0
	std Z+3,__zero_reg__
	std Z+2,__zero_reg__
	.loc 2 135 0
	std Z+5,__zero_reg__
	std Z+4,__zero_reg__
.LBE138:
.LBE137:
	.loc 2 37 0
	jmp _ZN6StringaSERKS_
.LVL61:
.LBE136:
	.cfi_endproc
.LFE64:
	.size	_ZN6StringC2ERKS_, .-_ZN6StringC2ERKS_
.global	_ZN6StringC1ERKS_
	.set	_ZN6StringC1ERKS_,_ZN6StringC2ERKS_
	.section	.text._ZN6StringaSEOS_,"ax",@progbits
.global	_ZN6StringaSEOS_
	.type	_ZN6StringaSEOS_, @function
_ZN6StringaSEOS_:
.LFB110:
	.loc 2 226 0
	.cfi_startproc
.LVL62:
	push r28
.LCFI26:
	.cfi_def_cfa_offset 3
	.cfi_offset 28, -2
	push r29
.LCFI27:
	.cfi_def_cfa_offset 4
	.cfi_offset 29, -3
/* prologue: function */
/* frame size = 0 */
/* stack size = 2 */
.L__stack_usage = 2
	movw r28,r24
	.loc 2 227 0
	cp r24,r22
	cpc r25,r23
	breq .L53
	.loc 2 227 0 is_stmt 0 discriminator 1
	call _ZN6String4moveERS_
.LVL63:
.L53:
	.loc 2 229 0 is_stmt 1
	movw r24,r28
/* epilogue start */
	pop r29
	pop r28
.LVL64:
	ret
	.cfi_endproc
.LFE110:
	.size	_ZN6StringaSEOS_, .-_ZN6StringaSEOS_
	.section	.text._ZN6StringaSEO15StringSumHelper,"ax",@progbits
.global	_ZN6StringaSEO15StringSumHelper
	.type	_ZN6StringaSEO15StringSumHelper, @function
_ZN6StringaSEO15StringSumHelper:
.LFB111:
	.loc 2 232 0
	.cfi_startproc
.LVL65:
	push r28
.LCFI28:
	.cfi_def_cfa_offset 3
	.cfi_offset 28, -2
	push r29
.LCFI29:
	.cfi_def_cfa_offset 4
	.cfi_offset 29, -3
/* prologue: function */
/* frame size = 0 */
/* stack size = 2 */
.L__stack_usage = 2
	movw r28,r24
	.loc 2 233 0
	cp r24,r22
	cpc r25,r23
	breq .L55
	.loc 2 233 0 is_stmt 0 discriminator 1
	call _ZN6String4moveERS_
.LVL66:
.L55:
	.loc 2 235 0 is_stmt 1
	movw r24,r28
/* epilogue start */
	pop r29
	pop r28
.LVL67:
	ret
	.cfi_endproc
.LFE111:
	.size	_ZN6StringaSEO15StringSumHelper, .-_ZN6StringaSEO15StringSumHelper
	.section	.text._ZN6StringaSEPKc,"ax",@progbits
.global	_ZN6StringaSEPKc
	.type	_ZN6StringaSEPKc, @function
_ZN6StringaSEPKc:
.LFB112:
	.loc 2 239 0
	.cfi_startproc
.LVL68:
	push r28
.LCFI30:
	.cfi_def_cfa_offset 3
	.cfi_offset 28, -2
	push r29
.LCFI31:
	.cfi_def_cfa_offset 4
	.cfi_offset 29, -3
/* prologue: function */
/* frame size = 0 */
/* stack size = 2 */
.L__stack_usage = 2
	movw r28,r24
	.loc 2 240 0
	cp r22,__zero_reg__
	cpc r23,__zero_reg__
	breq .L57
	.loc 2 240 0 is_stmt 0 discriminator 1
	movw r30,r22
	0:
	ld __tmp_reg__,Z+
	tst __tmp_reg__
	brne 0b
	sbiw r30,1
	movw r20,r30
	sub r20,r22
	sbc r21,r23
	call _ZN6String4copyEPKcj
.LVL69:
	rjmp .L58
.LVL70:
.L57:
	.loc 2 241 0 is_stmt 1
	call _ZN6String10invalidateEv
.LVL71:
.L58:
	.loc 2 244 0
	movw r24,r28
/* epilogue start */
	pop r29
	pop r28
.LVL72:
	ret
	.cfi_endproc
.LFE112:
	.size	_ZN6StringaSEPKc, .-_ZN6StringaSEPKc
	.section	.text._ZN6StringC2Ec,"ax",@progbits
.global	_ZN6StringC2Ec
	.type	_ZN6StringC2Ec, @function
_ZN6StringC2Ec:
.LFB76:
	.loc 2 59 0
	.cfi_startproc
.LVL73:
	push r28
.LCFI32:
	.cfi_def_cfa_offset 3
	.cfi_offset 28, -2
	push r29
.LCFI33:
	.cfi_def_cfa_offset 4
	.cfi_offset 29, -3
	rcall .
.LCFI34:
	.cfi_def_cfa_offset 6
	in r28,__SP_L__
	in r29,__SP_H__
.LCFI35:
	.cfi_def_cfa_register 28
/* prologue: function */
/* frame size = 2 */
/* stack size = 4 */
.L__stack_usage = 4
.LVL74:
.LBB139:
.LBB140:
.LBB141:
	.loc 2 133 0
	movw r30,r24
	std Z+1,__zero_reg__
	st Z,__zero_reg__
	.loc 2 134 0
	std Z+3,__zero_reg__
	std Z+2,__zero_reg__
	.loc 2 135 0
	std Z+5,__zero_reg__
	std Z+4,__zero_reg__
.LBE141:
.LBE140:
	.loc 2 63 0
	std Y+1,r22
	.loc 2 64 0
	std Y+2,__zero_reg__
	.loc 2 65 0
	movw r22,r28
.LVL75:
	subi r22,-1
	sbci r23,-1
	call _ZN6StringaSEPKc
.LVL76:
/* epilogue start */
.LBE139:
	.loc 2 66 0
	pop __tmp_reg__
	pop __tmp_reg__
	pop r29
	pop r28
	ret
	.cfi_endproc
.LFE76:
	.size	_ZN6StringC2Ec, .-_ZN6StringC2Ec
.global	_ZN6StringC1Ec
	.set	_ZN6StringC1Ec,_ZN6StringC2Ec
	.section	.text._ZN6StringC2Ehh,"ax",@progbits
.global	_ZN6StringC2Ehh
	.type	_ZN6StringC2Ehh, @function
_ZN6StringC2Ehh:
.LFB79:
	.loc 2 68 0
	.cfi_startproc
.LVL77:
	push r16
.LCFI36:
	.cfi_def_cfa_offset 3
	.cfi_offset 16, -2
	push r17
.LCFI37:
	.cfi_def_cfa_offset 4
	.cfi_offset 17, -3
	push r28
.LCFI38:
	.cfi_def_cfa_offset 5
	.cfi_offset 28, -4
	push r29
.LCFI39:
	.cfi_def_cfa_offset 6
	.cfi_offset 29, -5
	in r28,__SP_L__
	in r29,__SP_H__
.LCFI40:
	.cfi_def_cfa_register 28
	sbiw r28,9
.LCFI41:
	.cfi_def_cfa_offset 15
	in __tmp_reg__,__SREG__
	cli
	out __SP_H__,r29
	out __SREG__,__tmp_reg__
	out __SP_L__,r28
/* prologue: function */
/* frame size = 9 */
/* stack size = 13 */
.L__stack_usage = 13
	movw r16,r24
	mov r24,r22
.LVL78:
.LBB142:
.LBB143:
.LBB144:
	.loc 2 133 0
	movw r30,r16
	std Z+1,__zero_reg__
	st Z,__zero_reg__
	.loc 2 134 0
	std Z+3,__zero_reg__
	std Z+2,__zero_reg__
	.loc 2 135 0
	std Z+5,__zero_reg__
	std Z+4,__zero_reg__
.LVL79:
.LBE144:
.LBE143:
	.loc 2 72 0
	ldi r21,0
.LBB145:
.LBB146:
	.file 3 "/home/yvonne/Downloads/arduino-1.8.5/hardware/tools/avr/avr/include/stdlib.h"
	.loc 3 521 0
	movw r22,r28
.LVL80:
	subi r22,-1
	sbci r23,-1
	ldi r25,0
	call __utoa
.LVL81:
.LBE146:
.LBE145:
	.loc 2 73 0
	movw r22,r28
	subi r22,-1
	sbci r23,-1
	movw r24,r16
	call _ZN6StringaSEPKc
.LVL82:
/* epilogue start */
.LBE142:
	.loc 2 74 0
	adiw r28,9
	in __tmp_reg__,__SREG__
	cli
	out __SP_H__,r29
	out __SREG__,__tmp_reg__
	out __SP_L__,r28
	pop r29
	pop r28
	pop r17
	pop r16
.LVL83:
	ret
	.cfi_endproc
.LFE79:
	.size	_ZN6StringC2Ehh, .-_ZN6StringC2Ehh
.global	_ZN6StringC1Ehh
	.set	_ZN6StringC1Ehh,_ZN6StringC2Ehh
	.section	.text._ZN6StringC2Eih,"ax",@progbits
.global	_ZN6StringC2Eih
	.type	_ZN6StringC2Eih, @function
_ZN6StringC2Eih:
.LFB82:
	.loc 2 76 0
	.cfi_startproc
.LVL84:
	push r16
.LCFI42:
	.cfi_def_cfa_offset 3
	.cfi_offset 16, -2
	push r17
.LCFI43:
	.cfi_def_cfa_offset 4
	.cfi_offset 17, -3
	push r28
.LCFI44:
	.cfi_def_cfa_offset 5
	.cfi_offset 28, -4
	push r29
.LCFI45:
	.cfi_def_cfa_offset 6
	.cfi_offset 29, -5
	in r28,__SP_L__
	in r29,__SP_H__
.LCFI46:
	.cfi_def_cfa_register 28
	sbiw r28,18
.LCFI47:
	.cfi_def_cfa_offset 24
	in __tmp_reg__,__SREG__
	cli
	out __SP_H__,r29
	out __SREG__,__tmp_reg__
	out __SP_L__,r28
/* prologue: function */
/* frame size = 18 */
/* stack size = 22 */
.L__stack_usage = 22
	movw r16,r24
	movw r24,r22
.LVL85:
.LBB147:
.LBB148:
.LBB149:
	.loc 2 133 0
	movw r30,r16
	std Z+1,__zero_reg__
	st Z,__zero_reg__
	.loc 2 134 0
	std Z+3,__zero_reg__
	std Z+2,__zero_reg__
	.loc 2 135 0
	std Z+5,__zero_reg__
	std Z+4,__zero_reg__
.LVL86:
.LBE149:
.LBE148:
	.loc 2 80 0
	ldi r21,0
.LBB150:
.LBB151:
	.loc 3 433 0
	movw r22,r28
.LVL87:
	subi r22,-1
	sbci r23,-1
	call __itoa
.LVL88:
.LBE151:
.LBE150:
	.loc 2 81 0
	movw r22,r28
	subi r22,-1
	sbci r23,-1
	movw r24,r16
	call _ZN6StringaSEPKc
.LVL89:
/* epilogue start */
.LBE147:
	.loc 2 82 0
	adiw r28,18
	in __tmp_reg__,__SREG__
	cli
	out __SP_H__,r29
	out __SREG__,__tmp_reg__
	out __SP_L__,r28
	pop r29
	pop r28
	pop r17
	pop r16
.LVL90:
	ret
	.cfi_endproc
.LFE82:
	.size	_ZN6StringC2Eih, .-_ZN6StringC2Eih
.global	_ZN6StringC1Eih
	.set	_ZN6StringC1Eih,_ZN6StringC2Eih
	.section	.text._ZN6StringC2Ejh,"ax",@progbits
.global	_ZN6StringC2Ejh
	.type	_ZN6StringC2Ejh, @function
_ZN6StringC2Ejh:
.LFB85:
	.loc 2 84 0
	.cfi_startproc
.LVL91:
	push r16
.LCFI48:
	.cfi_def_cfa_offset 3
	.cfi_offset 16, -2
	push r17
.LCFI49:
	.cfi_def_cfa_offset 4
	.cfi_offset 17, -3
	push r28
.LCFI50:
	.cfi_def_cfa_offset 5
	.cfi_offset 28, -4
	push r29
.LCFI51:
	.cfi_def_cfa_offset 6
	.cfi_offset 29, -5
	in r28,__SP_L__
	in r29,__SP_H__
.LCFI52:
	.cfi_def_cfa_register 28
	sbiw r28,17
.LCFI53:
	.cfi_def_cfa_offset 23
	in __tmp_reg__,__SREG__
	cli
	out __SP_H__,r29
	out __SREG__,__tmp_reg__
	out __SP_L__,r28
/* prologue: function */
/* frame size = 17 */
/* stack size = 21 */
.L__stack_usage = 21
	movw r16,r24
	movw r24,r22
.LVL92:
.LBB152:
.LBB153:
.LBB154:
	.loc 2 133 0
	movw r30,r16
	std Z+1,__zero_reg__
	st Z,__zero_reg__
	.loc 2 134 0
	std Z+3,__zero_reg__
	std Z+2,__zero_reg__
	.loc 2 135 0
	std Z+5,__zero_reg__
	std Z+4,__zero_reg__
.LVL93:
.LBE154:
.LBE153:
	.loc 2 88 0
	ldi r21,0
.LBB155:
.LBB156:
	.loc 3 521 0
	movw r22,r28
.LVL94:
	subi r22,-1
	sbci r23,-1
	call __utoa
.LVL95:
.LBE156:
.LBE155:
	.loc 2 89 0
	movw r22,r28
	subi r22,-1
	sbci r23,-1
	movw r24,r16
	call _ZN6StringaSEPKc
.LVL96:
/* epilogue start */
.LBE152:
	.loc 2 90 0
	adiw r28,17
	in __tmp_reg__,__SREG__
	cli
	out __SP_H__,r29
	out __SREG__,__tmp_reg__
	out __SP_L__,r28
	pop r29
	pop r28
	pop r17
	pop r16
.LVL97:
	ret
	.cfi_endproc
.LFE85:
	.size	_ZN6StringC2Ejh, .-_ZN6StringC2Ejh
.global	_ZN6StringC1Ejh
	.set	_ZN6StringC1Ejh,_ZN6StringC2Ejh
	.section	.text._ZN6StringC2Elh,"ax",@progbits
.global	_ZN6StringC2Elh
	.type	_ZN6StringC2Elh, @function
_ZN6StringC2Elh:
.LFB88:
	.loc 2 92 0
	.cfi_startproc
.LVL98:
	push r16
.LCFI54:
	.cfi_def_cfa_offset 3
	.cfi_offset 16, -2
	push r17
.LCFI55:
	.cfi_def_cfa_offset 4
	.cfi_offset 17, -3
	push r28
.LCFI56:
	.cfi_def_cfa_offset 5
	.cfi_offset 28, -4
	push r29
.LCFI57:
	.cfi_def_cfa_offset 6
	.cfi_offset 29, -5
	in r28,__SP_L__
	in r29,__SP_H__
.LCFI58:
	.cfi_def_cfa_register 28
	sbiw r28,34
.LCFI59:
	.cfi_def_cfa_offset 40
	in __tmp_reg__,__SREG__
	cli
	out __SP_H__,r29
	out __SREG__,__tmp_reg__
	out __SP_L__,r28
/* prologue: function */
/* frame size = 34 */
/* stack size = 38 */
.L__stack_usage = 38
	movw r16,r24
	movw r24,r22
	movw r22,r20
.LVL99:
.LBB157:
.LBB158:
.LBB159:
	.loc 2 133 0
	movw r30,r16
	std Z+1,__zero_reg__
	st Z,__zero_reg__
	.loc 2 134 0
	std Z+3,__zero_reg__
	std Z+2,__zero_reg__
	.loc 2 135 0
	std Z+5,__zero_reg__
	std Z+4,__zero_reg__
.LVL100:
.LBE159:
.LBE158:
	.loc 2 96 0
	ldi r19,0
.LBB160:
.LBB161:
	.loc 3 478 0
	movw r20,r28
.LVL101:
	subi r20,-1
	sbci r21,-1
	call __ltoa
.LVL102:
.LBE161:
.LBE160:
	.loc 2 97 0
	movw r22,r28
	subi r22,-1
	sbci r23,-1
	movw r24,r16
	call _ZN6StringaSEPKc
.LVL103:
/* epilogue start */
.LBE157:
	.loc 2 98 0
	adiw r28,34
	in __tmp_reg__,__SREG__
	cli
	out __SP_H__,r29
	out __SREG__,__tmp_reg__
	out __SP_L__,r28
	pop r29
	pop r28
	pop r17
	pop r16
.LVL104:
	ret
	.cfi_endproc
.LFE88:
	.size	_ZN6StringC2Elh, .-_ZN6StringC2Elh
.global	_ZN6StringC1Elh
	.set	_ZN6StringC1Elh,_ZN6StringC2Elh
	.section	.text._ZN6StringC2Emh,"ax",@progbits
.global	_ZN6StringC2Emh
	.type	_ZN6StringC2Emh, @function
_ZN6StringC2Emh:
.LFB91:
	.loc 2 100 0
	.cfi_startproc
.LVL105:
	push r16
.LCFI60:
	.cfi_def_cfa_offset 3
	.cfi_offset 16, -2
	push r17
.LCFI61:
	.cfi_def_cfa_offset 4
	.cfi_offset 17, -3
	push r28
.LCFI62:
	.cfi_def_cfa_offset 5
	.cfi_offset 28, -4
	push r29
.LCFI63:
	.cfi_def_cfa_offset 6
	.cfi_offset 29, -5
	in r28,__SP_L__
	in r29,__SP_H__
.LCFI64:
	.cfi_def_cfa_register 28
	sbiw r28,33
.LCFI65:
	.cfi_def_cfa_offset 39
	in __tmp_reg__,__SREG__
	cli
	out __SP_H__,r29
	out __SREG__,__tmp_reg__
	out __SP_L__,r28
/* prologue: function */
/* frame size = 33 */
/* stack size = 37 */
.L__stack_usage = 37
	movw r16,r24
	movw r24,r22
	movw r22,r20
.LVL106:
.LBB162:
.LBB163:
.LBB164:
	.loc 2 133 0
	movw r30,r16
	std Z+1,__zero_reg__
	st Z,__zero_reg__
	.loc 2 134 0
	std Z+3,__zero_reg__
	std Z+2,__zero_reg__
	.loc 2 135 0
	std Z+5,__zero_reg__
	std Z+4,__zero_reg__
.LVL107:
.LBE164:
.LBE163:
	.loc 2 104 0
	ldi r19,0
.LBB165:
.LBB166:
	.loc 3 563 0
	movw r20,r28
.LVL108:
	subi r20,-1
	sbci r21,-1
	call __ultoa
.LVL109:
.LBE166:
.LBE165:
	.loc 2 105 0
	movw r22,r28
	subi r22,-1
	sbci r23,-1
	movw r24,r16
	call _ZN6StringaSEPKc
.LVL110:
/* epilogue start */
.LBE162:
	.loc 2 106 0
	adiw r28,33
	in __tmp_reg__,__SREG__
	cli
	out __SP_H__,r29
	out __SREG__,__tmp_reg__
	out __SP_L__,r28
	pop r29
	pop r28
	pop r17
	pop r16
.LVL111:
	ret
	.cfi_endproc
.LFE91:
	.size	_ZN6StringC2Emh, .-_ZN6StringC2Emh
.global	_ZN6StringC1Emh
	.set	_ZN6StringC1Emh,_ZN6StringC2Emh
	.section	.text._ZN6StringC2Efh,"ax",@progbits
.global	_ZN6StringC2Efh
	.type	_ZN6StringC2Efh, @function
_ZN6StringC2Efh:
.LFB94:
	.loc 2 108 0
	.cfi_startproc
.LVL112:
	push r14
.LCFI66:
	.cfi_def_cfa_offset 3
	.cfi_offset 14, -2
	push r15
.LCFI67:
	.cfi_def_cfa_offset 4
	.cfi_offset 15, -3
	push r16
.LCFI68:
	.cfi_def_cfa_offset 5
	.cfi_offset 16, -4
	push r17
.LCFI69:
	.cfi_def_cfa_offset 6
	.cfi_offset 17, -5
	push r28
.LCFI70:
	.cfi_def_cfa_offset 7
	.cfi_offset 28, -6
	push r29
.LCFI71:
	.cfi_def_cfa_offset 8
	.cfi_offset 29, -7
	in r28,__SP_L__
	in r29,__SP_H__
.LCFI72:
	.cfi_def_cfa_register 28
	sbiw r28,33
.LCFI73:
	.cfi_def_cfa_offset 41
	in __tmp_reg__,__SREG__
	cli
	out __SP_H__,r29
	out __SREG__,__tmp_reg__
	out __SP_L__,r28
/* prologue: function */
/* frame size = 33 */
/* stack size = 39 */
.L__stack_usage = 39
	movw r14,r24
	movw r24,r22
	movw r22,r20
.LVL113:
.LBB167:
.LBB168:
.LBB169:
	.loc 2 133 0
	movw r30,r14
	std Z+1,__zero_reg__
	st Z,__zero_reg__
	.loc 2 134 0
	std Z+3,__zero_reg__
	std Z+2,__zero_reg__
	.loc 2 135 0
	std Z+5,__zero_reg__
	std Z+4,__zero_reg__
.LBE169:
.LBE168:
	.loc 2 112 0
	ldi r20,lo8(2)
.LVL114:
	add r20,r18
	movw r16,r28
	subi r16,-1
	sbci r17,-1
	call dtostrf
.LVL115:
	movw r22,r24
	movw r24,r14
	call _ZN6StringaSEPKc
.LVL116:
/* epilogue start */
.LBE167:
	.loc 2 113 0
	adiw r28,33
	in __tmp_reg__,__SREG__
	cli
	out __SP_H__,r29
	out __SREG__,__tmp_reg__
	out __SP_L__,r28
	pop r29
	pop r28
	pop r17
	pop r16
	pop r15
	pop r14
.LVL117:
	ret
	.cfi_endproc
.LFE94:
	.size	_ZN6StringC2Efh, .-_ZN6StringC2Efh
.global	_ZN6StringC1Efh
	.set	_ZN6StringC1Efh,_ZN6StringC2Efh
	.section	.text._ZN6StringC2Edh,"ax",@progbits
.global	_ZN6StringC2Edh
	.type	_ZN6StringC2Edh, @function
_ZN6StringC2Edh:
.LFB97:
	.loc 2 115 0
	.cfi_startproc
.LVL118:
	push r14
.LCFI74:
	.cfi_def_cfa_offset 3
	.cfi_offset 14, -2
	push r15
.LCFI75:
	.cfi_def_cfa_offset 4
	.cfi_offset 15, -3
	push r16
.LCFI76:
	.cfi_def_cfa_offset 5
	.cfi_offset 16, -4
	push r17
.LCFI77:
	.cfi_def_cfa_offset 6
	.cfi_offset 17, -5
	push r28
.LCFI78:
	.cfi_def_cfa_offset 7
	.cfi_offset 28, -6
	push r29
.LCFI79:
	.cfi_def_cfa_offset 8
	.cfi_offset 29, -7
	in r28,__SP_L__
	in r29,__SP_H__
.LCFI80:
	.cfi_def_cfa_register 28
	sbiw r28,33
.LCFI81:
	.cfi_def_cfa_offset 41
	in __tmp_reg__,__SREG__
	cli
	out __SP_H__,r29
	out __SREG__,__tmp_reg__
	out __SP_L__,r28
/* prologue: function */
/* frame size = 33 */
/* stack size = 39 */
.L__stack_usage = 39
	movw r14,r24
	movw r24,r22
	movw r22,r20
.LVL119:
.LBB170:
.LBB171:
.LBB172:
	.loc 2 133 0
	movw r30,r14
	std Z+1,__zero_reg__
	st Z,__zero_reg__
	.loc 2 134 0
	std Z+3,__zero_reg__
	std Z+2,__zero_reg__
	.loc 2 135 0
	std Z+5,__zero_reg__
	std Z+4,__zero_reg__
.LBE172:
.LBE171:
	.loc 2 119 0
	ldi r20,lo8(2)
.LVL120:
	add r20,r18
	movw r16,r28
	subi r16,-1
	sbci r17,-1
	call dtostrf
.LVL121:
	movw r22,r24
	movw r24,r14
	call _ZN6StringaSEPKc
.LVL122:
/* epilogue start */
.LBE170:
	.loc 2 120 0
	adiw r28,33
	in __tmp_reg__,__SREG__
	cli
	out __SP_H__,r29
	out __SREG__,__tmp_reg__
	out __SP_L__,r28
	pop r29
	pop r28
	pop r17
	pop r16
	pop r15
	pop r14
.LVL123:
	ret
	.cfi_endproc
.LFE97:
	.size	_ZN6StringC2Edh, .-_ZN6StringC2Edh
.global	_ZN6StringC1Edh
	.set	_ZN6StringC1Edh,_ZN6StringC2Edh
	.section	.text._ZN6StringaSEPK19__FlashStringHelper,"ax",@progbits
.global	_ZN6StringaSEPK19__FlashStringHelper
	.type	_ZN6StringaSEPK19__FlashStringHelper, @function
_ZN6StringaSEPK19__FlashStringHelper:
.LFB113:
	.loc 2 247 0
	.cfi_startproc
.LVL124:
	push r16
.LCFI82:
	.cfi_def_cfa_offset 3
	.cfi_offset 16, -2
	push r17
.LCFI83:
	.cfi_def_cfa_offset 4
	.cfi_offset 17, -3
	push r28
.LCFI84:
	.cfi_def_cfa_offset 5
	.cfi_offset 28, -4
	push r29
.LCFI85:
	.cfi_def_cfa_offset 6
	.cfi_offset 29, -5
	rcall .
.LCFI86:
	.cfi_def_cfa_offset 8
	in r28,__SP_L__
	in r29,__SP_H__
.LCFI87:
	.cfi_def_cfa_register 28
/* prologue: function */
/* frame size = 2 */
/* stack size = 6 */
.L__stack_usage = 6
	movw r16,r24
	.loc 2 248 0
	cp r22,__zero_reg__
	cpc r23,__zero_reg__
	breq .L68
.LVL125:
.LBB173:
.LBB174:
	.file 4 "/home/yvonne/Downloads/arduino-1.8.5/hardware/tools/avr/avr/include/avr/pgmspace.h"
	.loc 4 1783 0
	movw r24,r22
.LVL126:
	std Y+1,r22
	std Y+2,r23
	call __strlen_P
.LVL127:
.LBE174:
.LBE173:
	.loc 2 248 0
	movw r20,r24
	ldd r22,Y+1
	ldd r23,Y+2
	movw r24,r16
	call _ZN6String4copyEPK19__FlashStringHelperj
.LVL128:
	rjmp .L69
.LVL129:
.L68:
	.loc 2 249 0
	call _ZN6String10invalidateEv
.LVL130:
.L69:
	.loc 2 252 0
	movw r24,r16
/* epilogue start */
	pop __tmp_reg__
	pop __tmp_reg__
	pop r29
	pop r28
	pop r17
	pop r16
.LVL131:
	ret
	.cfi_endproc
.LFE113:
	.size	_ZN6StringaSEPK19__FlashStringHelper, .-_ZN6StringaSEPK19__FlashStringHelper
	.section	.text._ZN6StringC2EPK19__FlashStringHelper,"ax",@progbits
.global	_ZN6StringC2EPK19__FlashStringHelper
	.type	_ZN6StringC2EPK19__FlashStringHelper, @function
_ZN6StringC2EPK19__FlashStringHelper:
.LFB67:
	.loc 2 40 0
	.cfi_startproc
.LVL132:
/* prologue: function */
/* frame size = 0 */
/* stack size = 0 */
.L__stack_usage = 0
.LBB175:
.LBB176:
.LBB177:
	.loc 2 133 0
	movw r30,r24
	std Z+1,__zero_reg__
	st Z,__zero_reg__
	.loc 2 134 0
	std Z+3,__zero_reg__
	std Z+2,__zero_reg__
	.loc 2 135 0
	std Z+5,__zero_reg__
	std Z+4,__zero_reg__
.LBE177:
.LBE176:
	.loc 2 43 0
	jmp _ZN6StringaSEPK19__FlashStringHelper
.LVL133:
.LBE175:
	.cfi_endproc
.LFE67:
	.size	_ZN6StringC2EPK19__FlashStringHelper, .-_ZN6StringC2EPK19__FlashStringHelper
.global	_ZN6StringC1EPK19__FlashStringHelper
	.set	_ZN6StringC1EPK19__FlashStringHelper,_ZN6StringC2EPK19__FlashStringHelper
	.section	.text._ZN6String6concatEPKcj,"ax",@progbits
.global	_ZN6String6concatEPKcj
	.type	_ZN6String6concatEPKcj, @function
_ZN6String6concatEPKcj:
.LFB115:
	.loc 2 264 0
	.cfi_startproc
.LVL134:
	push r14
.LCFI88:
	.cfi_def_cfa_offset 3
	.cfi_offset 14, -2
	push r15
.LCFI89:
	.cfi_def_cfa_offset 4
	.cfi_offset 15, -3
	push r16
.LCFI90:
	.cfi_def_cfa_offset 5
	.cfi_offset 16, -4
	push r17
.LCFI91:
	.cfi_def_cfa_offset 6
	.cfi_offset 17, -5
	push r28
.LCFI92:
	.cfi_def_cfa_offset 7
	.cfi_offset 28, -6
	push r29
.LCFI93:
	.cfi_def_cfa_offset 8
	.cfi_offset 29, -7
/* prologue: function */
/* frame size = 0 */
/* stack size = 6 */
.L__stack_usage = 6
.LBB178:
	.loc 2 265 0
	movw r30,r24
	ldd r18,Z+4
	ldd r19,Z+5
.LVL135:
	.loc 2 266 0
	cp r22,__zero_reg__
	cpc r23,__zero_reg__
	brne .L72
.LVL136:
.L74:
	ldi r24,0
	rjmp .L73
.LVL137:
.L72:
	.loc 2 267 0
	cp r20,__zero_reg__
	cpc r21,__zero_reg__
	breq .L75
	movw r14,r22
	movw r28,r24
	.loc 2 265 0
	movw r16,r20
	add r16,r18
	adc r17,r19
	.loc 2 268 0
	movw r22,r16
.LVL138:
	call _ZN6String7reserveEj
.LVL139:
	tst r24
	breq .L74
	.loc 2 269 0
	ld r18,Y
	ldd r19,Y+1
	ldd r24,Y+4
	ldd r25,Y+5
	movw r22,r14
	add r24,r18
	adc r25,r19
	call strcpy
.LVL140:
	.loc 2 270 0
	std Y+5,r17
	std Y+4,r16
.LVL141:
.L75:
	.loc 2 267 0
	ldi r24,lo8(1)
.L73:
/* epilogue start */
.LBE178:
	.loc 2 272 0
	pop r29
	pop r28
	pop r17
	pop r16
	pop r15
	pop r14
	ret
	.cfi_endproc
.LFE115:
	.size	_ZN6String6concatEPKcj, .-_ZN6String6concatEPKcj
	.section	.text._ZN6String6concatERKS_,"ax",@progbits
.global	_ZN6String6concatERKS_
	.type	_ZN6String6concatERKS_, @function
_ZN6String6concatERKS_:
.LFB114:
	.loc 2 259 0
	.cfi_startproc
.LVL142:
/* prologue: function */
/* frame size = 0 */
/* stack size = 0 */
.L__stack_usage = 0
	.loc 2 260 0
	movw r30,r22
	ldd r20,Z+4
	ldd r21,Z+5
	ld r22,Z
	ldd r23,Z+1
.LVL143:
	jmp _ZN6String6concatEPKcj
.LVL144:
	.cfi_endproc
.LFE114:
	.size	_ZN6String6concatERKS_, .-_ZN6String6concatERKS_
	.section	.text._ZN6String6concatEPKc,"ax",@progbits
.global	_ZN6String6concatEPKc
	.type	_ZN6String6concatEPKc, @function
_ZN6String6concatEPKc:
.LFB116:
	.loc 2 275 0
	.cfi_startproc
.LVL145:
/* prologue: function */
/* frame size = 0 */
/* stack size = 0 */
.L__stack_usage = 0
	.loc 2 276 0
	cp r22,__zero_reg__
	cpc r23,__zero_reg__
	breq .L81
	.loc 2 277 0
	movw r30,r22
	0:
	ld __tmp_reg__,Z+
	tst __tmp_reg__
	brne 0b
	sbiw r30,1
	movw r20,r30
	sub r20,r22
	sbc r21,r23
	jmp _ZN6String6concatEPKcj
.LVL146:
.L81:
	.loc 2 278 0
	ldi r24,0
.LVL147:
	ret
	.cfi_endproc
.LFE116:
	.size	_ZN6String6concatEPKc, .-_ZN6String6concatEPKc
	.section	.text._ZN6String6concatEc,"ax",@progbits
.global	_ZN6String6concatEc
	.type	_ZN6String6concatEc, @function
_ZN6String6concatEc:
.LFB117:
	.loc 2 281 0
	.cfi_startproc
.LVL148:
	push r28
.LCFI94:
	.cfi_def_cfa_offset 3
	.cfi_offset 28, -2
	push r29
.LCFI95:
	.cfi_def_cfa_offset 4
	.cfi_offset 29, -3
	rcall .
.LCFI96:
	.cfi_def_cfa_offset 6
	in r28,__SP_L__
	in r29,__SP_H__
.LCFI97:
	.cfi_def_cfa_register 28
/* prologue: function */
/* frame size = 2 */
/* stack size = 4 */
.L__stack_usage = 4
.LBB179:
	.loc 2 283 0
	std Y+1,r22
	.loc 2 284 0
	std Y+2,__zero_reg__
	.loc 2 285 0
	ldi r20,lo8(1)
	ldi r21,0
	movw r22,r28
.LVL149:
	subi r22,-1
	sbci r23,-1
	call _ZN6String6concatEPKcj
.LVL150:
/* epilogue start */
.LBE179:
	.loc 2 286 0
	pop __tmp_reg__
	pop __tmp_reg__
	pop r29
	pop r28
	ret
	.cfi_endproc
.LFE117:
	.size	_ZN6String6concatEc, .-_ZN6String6concatEc
	.section	.text._ZN6String6concatEh,"ax",@progbits
.global	_ZN6String6concatEh
	.type	_ZN6String6concatEh, @function
_ZN6String6concatEh:
.LFB118:
	.loc 2 289 0
	.cfi_startproc
.LVL151:
	push r14
.LCFI98:
	.cfi_def_cfa_offset 3
	.cfi_offset 14, -2
	push r15
.LCFI99:
	.cfi_def_cfa_offset 4
	.cfi_offset 15, -3
	push r16
.LCFI100:
	.cfi_def_cfa_offset 5
	.cfi_offset 16, -4
	push r17
.LCFI101:
	.cfi_def_cfa_offset 6
	.cfi_offset 17, -5
	push r28
.LCFI102:
	.cfi_def_cfa_offset 7
	.cfi_offset 28, -6
	push r29
.LCFI103:
	.cfi_def_cfa_offset 8
	.cfi_offset 29, -7
	rcall .
	rcall .
.LCFI104:
	.cfi_def_cfa_offset 12
	in r28,__SP_L__
	in r29,__SP_H__
.LCFI105:
	.cfi_def_cfa_register 28
/* prologue: function */
/* frame size = 4 */
/* stack size = 10 */
.L__stack_usage = 10
	movw r14,r24
	mov r24,r22
.LVL152:
.LBB180:
.LBB181:
.LBB182:
	.loc 3 439 0
	ldi r20,lo8(10)
	movw r16,r28
	subi r16,-1
	sbci r17,-1
	movw r22,r16
.LVL153:
	ldi r25,0
	call __itoa_ncheck
.LVL154:
.LBE182:
.LBE181:
	.loc 2 292 0
	movw r30,r16
	0:
	ld __tmp_reg__,Z+
	tst __tmp_reg__
	brne 0b
	sbiw r30,1
	movw r20,r30
	sub r20,r16
	sbc r21,r17
	movw r22,r16
	movw r24,r14
	call _ZN6String6concatEPKcj
.LVL155:
/* epilogue start */
.LBE180:
	.loc 2 293 0
	pop __tmp_reg__
	pop __tmp_reg__
	pop __tmp_reg__
	pop __tmp_reg__
	pop r29
	pop r28
.LVL156:
	pop r17
.LVL157:
	pop r16
.LVL158:
	pop r15
.LVL159:
	pop r14
.LVL160:
	ret
	.cfi_endproc
.LFE118:
	.size	_ZN6String6concatEh, .-_ZN6String6concatEh
	.section	.text._ZN6String6concatEi,"ax",@progbits
.global	_ZN6String6concatEi
	.type	_ZN6String6concatEi, @function
_ZN6String6concatEi:
.LFB119:
	.loc 2 296 0
	.cfi_startproc
.LVL161:
	push r14
.LCFI106:
	.cfi_def_cfa_offset 3
	.cfi_offset 14, -2
	push r15
.LCFI107:
	.cfi_def_cfa_offset 4
	.cfi_offset 15, -3
	push r16
.LCFI108:
	.cfi_def_cfa_offset 5
	.cfi_offset 16, -4
	push r17
.LCFI109:
	.cfi_def_cfa_offset 6
	.cfi_offset 17, -5
	push r28
.LCFI110:
	.cfi_def_cfa_offset 7
	.cfi_offset 28, -6
	push r29
.LCFI111:
	.cfi_def_cfa_offset 8
	.cfi_offset 29, -7
	in r28,__SP_L__
	in r29,__SP_H__
.LCFI112:
	.cfi_def_cfa_register 28
	sbiw r28,8
.LCFI113:
	.cfi_def_cfa_offset 16
	in __tmp_reg__,__SREG__
	cli
	out __SP_H__,r29
	out __SREG__,__tmp_reg__
	out __SP_L__,r28
/* prologue: function */
/* frame size = 8 */
/* stack size = 14 */
.L__stack_usage = 14
	movw r14,r24
	movw r24,r22
.LVL162:
.LBB183:
.LBB184:
.LBB185:
	.loc 3 439 0
	ldi r20,lo8(10)
	movw r16,r28
	subi r16,-1
	sbci r17,-1
	movw r22,r16
.LVL163:
	call __itoa_ncheck
.LVL164:
.LBE185:
.LBE184:
	.loc 2 299 0
	movw r30,r16
	0:
	ld __tmp_reg__,Z+
	tst __tmp_reg__
	brne 0b
	sbiw r30,1
	movw r20,r30
	sub r20,r16
	sbc r21,r17
	movw r22,r16
	movw r24,r14
	call _ZN6String6concatEPKcj
.LVL165:
/* epilogue start */
.LBE183:
	.loc 2 300 0
	adiw r28,8
	in __tmp_reg__,__SREG__
	cli
	out __SP_H__,r29
	out __SREG__,__tmp_reg__
	out __SP_L__,r28
	pop r29
	pop r28
	pop r17
	pop r16
	pop r15
	pop r14
.LVL166:
	ret
	.cfi_endproc
.LFE119:
	.size	_ZN6String6concatEi, .-_ZN6String6concatEi
	.section	.text._ZN6String6concatEj,"ax",@progbits
.global	_ZN6String6concatEj
	.type	_ZN6String6concatEj, @function
_ZN6String6concatEj:
.LFB120:
	.loc 2 303 0
	.cfi_startproc
.LVL167:
	push r14
.LCFI114:
	.cfi_def_cfa_offset 3
	.cfi_offset 14, -2
	push r15
.LCFI115:
	.cfi_def_cfa_offset 4
	.cfi_offset 15, -3
	push r16
.LCFI116:
	.cfi_def_cfa_offset 5
	.cfi_offset 16, -4
	push r17
.LCFI117:
	.cfi_def_cfa_offset 6
	.cfi_offset 17, -5
	push r28
.LCFI118:
	.cfi_def_cfa_offset 7
	.cfi_offset 28, -6
	push r29
.LCFI119:
	.cfi_def_cfa_offset 8
	.cfi_offset 29, -7
	in r28,__SP_L__
	in r29,__SP_H__
.LCFI120:
	.cfi_def_cfa_register 28
	sbiw r28,7
.LCFI121:
	.cfi_def_cfa_offset 15
	in __tmp_reg__,__SREG__
	cli
	out __SP_H__,r29
	out __SREG__,__tmp_reg__
	out __SP_L__,r28
/* prologue: function */
/* frame size = 7 */
/* stack size = 13 */
.L__stack_usage = 13
	movw r14,r24
	movw r24,r22
.LVL168:
.LBB186:
.LBB187:
.LBB188:
	.loc 3 527 0
	ldi r20,lo8(10)
	movw r16,r28
	subi r16,-1
	sbci r17,-1
	movw r22,r16
.LVL169:
	call __utoa_ncheck
.LVL170:
.LBE188:
.LBE187:
	.loc 2 306 0
	movw r30,r16
	0:
	ld __tmp_reg__,Z+
	tst __tmp_reg__
	brne 0b
	sbiw r30,1
	movw r20,r30
	sub r20,r16
	sbc r21,r17
	movw r22,r16
	movw r24,r14
	call _ZN6String6concatEPKcj
.LVL171:
/* epilogue start */
.LBE186:
	.loc 2 307 0
	adiw r28,7
	in __tmp_reg__,__SREG__
	cli
	out __SP_H__,r29
	out __SREG__,__tmp_reg__
	out __SP_L__,r28
	pop r29
	pop r28
	pop r17
	pop r16
	pop r15
	pop r14
.LVL172:
	ret
	.cfi_endproc
.LFE120:
	.size	_ZN6String6concatEj, .-_ZN6String6concatEj
	.section	.text._ZN6String6concatEl,"ax",@progbits
.global	_ZN6String6concatEl
	.type	_ZN6String6concatEl, @function
_ZN6String6concatEl:
.LFB121:
	.loc 2 310 0
	.cfi_startproc
.LVL173:
	push r14
.LCFI122:
	.cfi_def_cfa_offset 3
	.cfi_offset 14, -2
	push r15
.LCFI123:
	.cfi_def_cfa_offset 4
	.cfi_offset 15, -3
	push r16
.LCFI124:
	.cfi_def_cfa_offset 5
	.cfi_offset 16, -4
	push r17
.LCFI125:
	.cfi_def_cfa_offset 6
	.cfi_offset 17, -5
	push r28
.LCFI126:
	.cfi_def_cfa_offset 7
	.cfi_offset 28, -6
	push r29
.LCFI127:
	.cfi_def_cfa_offset 8
	.cfi_offset 29, -7
	in r28,__SP_L__
	in r29,__SP_H__
.LCFI128:
	.cfi_def_cfa_register 28
	sbiw r28,14
.LCFI129:
	.cfi_def_cfa_offset 22
	in __tmp_reg__,__SREG__
	cli
	out __SP_H__,r29
	out __SREG__,__tmp_reg__
	out __SP_L__,r28
/* prologue: function */
/* frame size = 14 */
/* stack size = 20 */
.L__stack_usage = 20
	movw r14,r24
	movw r24,r22
	movw r22,r20
.LVL174:
.LBB189:
.LBB190:
.LBB191:
	.loc 3 484 0
	ldi r18,lo8(10)
	movw r16,r28
	subi r16,-1
	sbci r17,-1
	movw r20,r16
.LVL175:
	call __ltoa_ncheck
.LVL176:
.LBE191:
.LBE190:
	.loc 2 313 0
	movw r30,r16
	0:
	ld __tmp_reg__,Z+
	tst __tmp_reg__
	brne 0b
	sbiw r30,1
	movw r20,r30
	sub r20,r16
	sbc r21,r17
	movw r22,r16
	movw r24,r14
	call _ZN6String6concatEPKcj
.LVL177:
/* epilogue start */
.LBE189:
	.loc 2 314 0
	adiw r28,14
	in __tmp_reg__,__SREG__
	cli
	out __SP_H__,r29
	out __SREG__,__tmp_reg__
	out __SP_L__,r28
	pop r29
	pop r28
	pop r17
	pop r16
	pop r15
	pop r14
.LVL178:
	ret
	.cfi_endproc
.LFE121:
	.size	_ZN6String6concatEl, .-_ZN6String6concatEl
	.section	.text._ZN6String6concatEm,"ax",@progbits
.global	_ZN6String6concatEm
	.type	_ZN6String6concatEm, @function
_ZN6String6concatEm:
.LFB122:
	.loc 2 317 0
	.cfi_startproc
.LVL179:
	push r14
.LCFI130:
	.cfi_def_cfa_offset 3
	.cfi_offset 14, -2
	push r15
.LCFI131:
	.cfi_def_cfa_offset 4
	.cfi_offset 15, -3
	push r16
.LCFI132:
	.cfi_def_cfa_offset 5
	.cfi_offset 16, -4
	push r17
.LCFI133:
	.cfi_def_cfa_offset 6
	.cfi_offset 17, -5
	push r28
.LCFI134:
	.cfi_def_cfa_offset 7
	.cfi_offset 28, -6
	push r29
.LCFI135:
	.cfi_def_cfa_offset 8
	.cfi_offset 29, -7
	in r28,__SP_L__
	in r29,__SP_H__
.LCFI136:
	.cfi_def_cfa_register 28
	sbiw r28,13
.LCFI137:
	.cfi_def_cfa_offset 21
	in __tmp_reg__,__SREG__
	cli
	out __SP_H__,r29
	out __SREG__,__tmp_reg__
	out __SP_L__,r28
/* prologue: function */
/* frame size = 13 */
/* stack size = 19 */
.L__stack_usage = 19
	movw r14,r24
	movw r24,r22
	movw r22,r20
.LVL180:
.LBB192:
.LBB193:
.LBB194:
	.loc 3 569 0
	ldi r18,lo8(10)
	movw r16,r28
	subi r16,-1
	sbci r17,-1
	movw r20,r16
.LVL181:
	call __ultoa_ncheck
.LVL182:
.LBE194:
.LBE193:
	.loc 2 320 0
	movw r30,r16
	0:
	ld __tmp_reg__,Z+
	tst __tmp_reg__
	brne 0b
	sbiw r30,1
	movw r20,r30
	sub r20,r16
	sbc r21,r17
	movw r22,r16
	movw r24,r14
	call _ZN6String6concatEPKcj
.LVL183:
/* epilogue start */
.LBE192:
	.loc 2 321 0
	adiw r28,13
	in __tmp_reg__,__SREG__
	cli
	out __SP_H__,r29
	out __SREG__,__tmp_reg__
	out __SP_L__,r28
	pop r29
	pop r28
	pop r17
	pop r16
	pop r15
	pop r14
.LVL184:
	ret
	.cfi_endproc
.LFE122:
	.size	_ZN6String6concatEm, .-_ZN6String6concatEm
	.section	.text._ZN6String6concatEf,"ax",@progbits
.global	_ZN6String6concatEf
	.type	_ZN6String6concatEf, @function
_ZN6String6concatEf:
.LFB123:
	.loc 2 324 0
	.cfi_startproc
.LVL185:
	push r14
.LCFI138:
	.cfi_def_cfa_offset 3
	.cfi_offset 14, -2
	push r15
.LCFI139:
	.cfi_def_cfa_offset 4
	.cfi_offset 15, -3
	push r16
.LCFI140:
	.cfi_def_cfa_offset 5
	.cfi_offset 16, -4
	push r17
.LCFI141:
	.cfi_def_cfa_offset 6
	.cfi_offset 17, -5
	push r28
.LCFI142:
	.cfi_def_cfa_offset 7
	.cfi_offset 28, -6
	push r29
.LCFI143:
	.cfi_def_cfa_offset 8
	.cfi_offset 29, -7
	in r28,__SP_L__
	in r29,__SP_H__
.LCFI144:
	.cfi_def_cfa_register 28
	sbiw r28,20
.LCFI145:
	.cfi_def_cfa_offset 28
	in __tmp_reg__,__SREG__
	cli
	out __SP_H__,r29
	out __SREG__,__tmp_reg__
	out __SP_L__,r28
/* prologue: function */
/* frame size = 20 */
/* stack size = 26 */
.L__stack_usage = 26
	movw r14,r24
	movw r24,r22
	movw r22,r20
.LBB195:
	.loc 2 326 0
	movw r16,r28
	subi r16,-1
	sbci r17,-1
	ldi r18,lo8(2)
	ldi r20,lo8(4)
.LVL186:
	call dtostrf
.LVL187:
	movw r22,r24
.LVL188:
	.loc 2 327 0
	movw r30,r24
	0:
	ld __tmp_reg__,Z+
	tst __tmp_reg__
	brne 0b
	sbiw r30,1
	movw r20,r30
	sub r20,r24
	sbc r21,r25
	movw r24,r14
	call _ZN6String6concatEPKcj
.LVL189:
/* epilogue start */
.LBE195:
	.loc 2 328 0
	adiw r28,20
	in __tmp_reg__,__SREG__
	cli
	out __SP_H__,r29
	out __SREG__,__tmp_reg__
	out __SP_L__,r28
	pop r29
	pop r28
	pop r17
	pop r16
	pop r15
	pop r14
.LVL190:
	ret
	.cfi_endproc
.LFE123:
	.size	_ZN6String6concatEf, .-_ZN6String6concatEf
	.section	.text._ZN6String6concatEd,"ax",@progbits
.global	_ZN6String6concatEd
	.type	_ZN6String6concatEd, @function
_ZN6String6concatEd:
.LFB124:
	.loc 2 331 0
	.cfi_startproc
.LVL191:
	push r14
.LCFI146:
	.cfi_def_cfa_offset 3
	.cfi_offset 14, -2
	push r15
.LCFI147:
	.cfi_def_cfa_offset 4
	.cfi_offset 15, -3
	push r16
.LCFI148:
	.cfi_def_cfa_offset 5
	.cfi_offset 16, -4
	push r17
.LCFI149:
	.cfi_def_cfa_offset 6
	.cfi_offset 17, -5
	push r28
.LCFI150:
	.cfi_def_cfa_offset 7
	.cfi_offset 28, -6
	push r29
.LCFI151:
	.cfi_def_cfa_offset 8
	.cfi_offset 29, -7
	in r28,__SP_L__
	in r29,__SP_H__
.LCFI152:
	.cfi_def_cfa_register 28
	sbiw r28,20
.LCFI153:
	.cfi_def_cfa_offset 28
	in __tmp_reg__,__SREG__
	cli
	out __SP_H__,r29
	out __SREG__,__tmp_reg__
	out __SP_L__,r28
/* prologue: function */
/* frame size = 20 */
/* stack size = 26 */
.L__stack_usage = 26
	movw r14,r24
	movw r24,r22
	movw r22,r20
.LBB196:
	.loc 2 333 0
	movw r16,r28
	subi r16,-1
	sbci r17,-1
	ldi r18,lo8(2)
	ldi r20,lo8(4)
.LVL192:
	call dtostrf
.LVL193:
	movw r22,r24
.LVL194:
	.loc 2 334 0
	movw r30,r24
	0:
	ld __tmp_reg__,Z+
	tst __tmp_reg__
	brne 0b
	sbiw r30,1
	movw r20,r30
	sub r20,r24
	sbc r21,r25
	movw r24,r14
	call _ZN6String6concatEPKcj
.LVL195:
/* epilogue start */
.LBE196:
	.loc 2 335 0
	adiw r28,20
	in __tmp_reg__,__SREG__
	cli
	out __SP_H__,r29
	out __SREG__,__tmp_reg__
	out __SP_L__,r28
	pop r29
	pop r28
	pop r17
	pop r16
	pop r15
	pop r14
.LVL196:
	ret
	.cfi_endproc
.LFE124:
	.size	_ZN6String6concatEd, .-_ZN6String6concatEd
	.section	.text._ZN6String6concatEPK19__FlashStringHelper,"ax",@progbits
.global	_ZN6String6concatEPK19__FlashStringHelper
	.type	_ZN6String6concatEPK19__FlashStringHelper, @function
_ZN6String6concatEPK19__FlashStringHelper:
.LFB125:
	.loc 2 338 0
	.cfi_startproc
.LVL197:
	push r14
.LCFI154:
	.cfi_def_cfa_offset 3
	.cfi_offset 14, -2
	push r15
.LCFI155:
	.cfi_def_cfa_offset 4
	.cfi_offset 15, -3
	push r16
.LCFI156:
	.cfi_def_cfa_offset 5
	.cfi_offset 16, -4
	push r17
.LCFI157:
	.cfi_def_cfa_offset 6
	.cfi_offset 17, -5
	push r28
.LCFI158:
	.cfi_def_cfa_offset 7
	.cfi_offset 28, -6
	push r29
.LCFI159:
	.cfi_def_cfa_offset 8
	.cfi_offset 29, -7
/* prologue: function */
/* frame size = 0 */
/* stack size = 6 */
.L__stack_usage = 6
.LBB197:
	.loc 2 339 0
	cp r22,__zero_reg__
	cpc r23,__zero_reg__
	brne .L91
.LVL198:
.L93:
	ldi r24,0
	rjmp .L92
.LVL199:
.L91:
	movw r16,r22
	movw r28,r24
.LVL200:
.LBB198:
.LBB199:
	.loc 4 1783 0
	movw r24,r22
.LVL201:
	call __strlen_P
.LVL202:
.LBE199:
.LBE198:
	.loc 2 341 0
	sbiw r24,0
	breq .L94
	.loc 2 342 0
	ldd r18,Y+4
	ldd r19,Y+5
	movw r14,r24
	add r14,r18
	adc r15,r19
.LVL203:
	.loc 2 343 0
	movw r22,r14
	movw r24,r28
.LVL204:
	call _ZN6String7reserveEj
.LVL205:
	tst r24
	breq .L93
	.loc 2 344 0
	ld r18,Y
	ldd r19,Y+1
	ldd r24,Y+4
	ldd r25,Y+5
	movw r22,r16
	add r24,r18
	adc r25,r19
	call strcpy_P
.LVL206:
	.loc 2 345 0
	std Y+5,r15
	std Y+4,r14
.LVL207:
.L94:
	.loc 2 341 0
	ldi r24,lo8(1)
.LVL208:
.L92:
/* epilogue start */
.LBE197:
	.loc 2 347 0
	pop r29
	pop r28
	pop r17
	pop r16
	pop r15
	pop r14
	ret
	.cfi_endproc
.LFE125:
	.size	_ZN6String6concatEPK19__FlashStringHelper, .-_ZN6String6concatEPK19__FlashStringHelper
	.section	.text._ZplRK15StringSumHelperRK6String,"ax",@progbits
.global	_ZplRK15StringSumHelperRK6String
	.type	_ZplRK15StringSumHelperRK6String, @function
_ZplRK15StringSumHelperRK6String:
.LFB126:
	.loc 2 354 0
	.cfi_startproc
.LVL209:
	push r28
.LCFI160:
	.cfi_def_cfa_offset 3
	.cfi_offset 28, -2
	push r29
.LCFI161:
	.cfi_def_cfa_offset 4
	.cfi_offset 29, -3
/* prologue: function */
/* frame size = 0 */
/* stack size = 2 */
.L__stack_usage = 2
	movw r28,r24
.LVL210:
.LBB200:
	.loc 2 356 0
	movw r30,r22
	ldd r20,Z+4
	ldd r21,Z+5
	ld r22,Z
	ldd r23,Z+1
.LVL211:
	call _ZN6String6concatEPKcj
.LVL212:
	cpse r24,__zero_reg__
	rjmp .L99
	.loc 2 356 0 is_stmt 0 discriminator 1
	movw r24,r28
	call _ZN6String10invalidateEv
.LVL213:
.L99:
.LBE200:
	.loc 2 358 0 is_stmt 1
	movw r24,r28
/* epilogue start */
	pop r29
	pop r28
.LVL214:
	ret
	.cfi_endproc
.LFE126:
	.size	_ZplRK15StringSumHelperRK6String, .-_ZplRK15StringSumHelperRK6String
	.section	.text._ZplRK15StringSumHelperPKc,"ax",@progbits
.global	_ZplRK15StringSumHelperPKc
	.type	_ZplRK15StringSumHelperPKc, @function
_ZplRK15StringSumHelperPKc:
.LFB127:
	.loc 2 361 0
	.cfi_startproc
.LVL215:
	push r28
.LCFI162:
	.cfi_def_cfa_offset 3
	.cfi_offset 28, -2
	push r29
.LCFI163:
	.cfi_def_cfa_offset 4
	.cfi_offset 29, -3
/* prologue: function */
/* frame size = 0 */
/* stack size = 2 */
.L__stack_usage = 2
	movw r28,r24
.LVL216:
.LBB201:
	.loc 2 363 0
	cp r22,__zero_reg__
	cpc r23,__zero_reg__
	breq .L101
	.loc 2 363 0 is_stmt 0 discriminator 2
	movw r30,r22
	0:
	ld __tmp_reg__,Z+
	tst __tmp_reg__
	brne 0b
	sbiw r30,1
	movw r20,r30
	sub r20,r22
	sbc r21,r23
	call _ZN6String6concatEPKcj
.LVL217:
	cpse r24,__zero_reg__
	rjmp .L109
.L101:
	.loc 2 363 0
	movw r24,r28
	call _ZN6String10invalidateEv
.LVL218:
.L109:
.LBE201:
	.loc 2 365 0 is_stmt 1
	movw r24,r28
/* epilogue start */
	pop r29
	pop r28
.LVL219:
	ret
	.cfi_endproc
.LFE127:
	.size	_ZplRK15StringSumHelperPKc, .-_ZplRK15StringSumHelperPKc
	.section	.text._ZplRK15StringSumHelperc,"ax",@progbits
.global	_ZplRK15StringSumHelperc
	.type	_ZplRK15StringSumHelperc, @function
_ZplRK15StringSumHelperc:
.LFB128:
	.loc 2 368 0
	.cfi_startproc
.LVL220:
	push r28
.LCFI164:
	.cfi_def_cfa_offset 3
	.cfi_offset 28, -2
	push r29
.LCFI165:
	.cfi_def_cfa_offset 4
	.cfi_offset 29, -3
/* prologue: function */
/* frame size = 0 */
/* stack size = 2 */
.L__stack_usage = 2
	movw r28,r24
.LVL221:
.LBB202:
	.loc 2 370 0
	call _ZN6String6concatEc
.LVL222:
	cpse r24,__zero_reg__
	rjmp .L111
	.loc 2 370 0 is_stmt 0 discriminator 1
	movw r24,r28
	call _ZN6String10invalidateEv
.LVL223:
.L111:
.LBE202:
	.loc 2 372 0 is_stmt 1
	movw r24,r28
/* epilogue start */
	pop r29
	pop r28
.LVL224:
	ret
	.cfi_endproc
.LFE128:
	.size	_ZplRK15StringSumHelperc, .-_ZplRK15StringSumHelperc
	.section	.text._ZplRK15StringSumHelperh,"ax",@progbits
.global	_ZplRK15StringSumHelperh
	.type	_ZplRK15StringSumHelperh, @function
_ZplRK15StringSumHelperh:
.LFB129:
	.loc 2 375 0
	.cfi_startproc
.LVL225:
	push r28
.LCFI166:
	.cfi_def_cfa_offset 3
	.cfi_offset 28, -2
	push r29
.LCFI167:
	.cfi_def_cfa_offset 4
	.cfi_offset 29, -3
/* prologue: function */
/* frame size = 0 */
/* stack size = 2 */
.L__stack_usage = 2
	movw r28,r24
.LVL226:
.LBB203:
	.loc 2 377 0
	call _ZN6String6concatEh
.LVL227:
	cpse r24,__zero_reg__
	rjmp .L113
	.loc 2 377 0 is_stmt 0 discriminator 1
	movw r24,r28
	call _ZN6String10invalidateEv
.LVL228:
.L113:
.LBE203:
	.loc 2 379 0 is_stmt 1
	movw r24,r28
/* epilogue start */
	pop r29
	pop r28
.LVL229:
	ret
	.cfi_endproc
.LFE129:
	.size	_ZplRK15StringSumHelperh, .-_ZplRK15StringSumHelperh
	.section	.text._ZplRK15StringSumHelperi,"ax",@progbits
.global	_ZplRK15StringSumHelperi
	.type	_ZplRK15StringSumHelperi, @function
_ZplRK15StringSumHelperi:
.LFB130:
	.loc 2 382 0
	.cfi_startproc
.LVL230:
	push r28
.LCFI168:
	.cfi_def_cfa_offset 3
	.cfi_offset 28, -2
	push r29
.LCFI169:
	.cfi_def_cfa_offset 4
	.cfi_offset 29, -3
/* prologue: function */
/* frame size = 0 */
/* stack size = 2 */
.L__stack_usage = 2
	movw r28,r24
.LVL231:
.LBB204:
	.loc 2 384 0
	call _ZN6String6concatEi
.LVL232:
	cpse r24,__zero_reg__
	rjmp .L115
	.loc 2 384 0 is_stmt 0 discriminator 1
	movw r24,r28
	call _ZN6String10invalidateEv
.LVL233:
.L115:
.LBE204:
	.loc 2 386 0 is_stmt 1
	movw r24,r28
/* epilogue start */
	pop r29
	pop r28
.LVL234:
	ret
	.cfi_endproc
.LFE130:
	.size	_ZplRK15StringSumHelperi, .-_ZplRK15StringSumHelperi
	.section	.text._ZplRK15StringSumHelperj,"ax",@progbits
.global	_ZplRK15StringSumHelperj
	.type	_ZplRK15StringSumHelperj, @function
_ZplRK15StringSumHelperj:
.LFB131:
	.loc 2 389 0
	.cfi_startproc
.LVL235:
	push r28
.LCFI170:
	.cfi_def_cfa_offset 3
	.cfi_offset 28, -2
	push r29
.LCFI171:
	.cfi_def_cfa_offset 4
	.cfi_offset 29, -3
/* prologue: function */
/* frame size = 0 */
/* stack size = 2 */
.L__stack_usage = 2
	movw r28,r24
.LVL236:
.LBB205:
	.loc 2 391 0
	call _ZN6String6concatEj
.LVL237:
	cpse r24,__zero_reg__
	rjmp .L117
	.loc 2 391 0 is_stmt 0 discriminator 1
	movw r24,r28
	call _ZN6String10invalidateEv
.LVL238:
.L117:
.LBE205:
	.loc 2 393 0 is_stmt 1
	movw r24,r28
/* epilogue start */
	pop r29
	pop r28
.LVL239:
	ret
	.cfi_endproc
.LFE131:
	.size	_ZplRK15StringSumHelperj, .-_ZplRK15StringSumHelperj
	.section	.text._ZplRK15StringSumHelperl,"ax",@progbits
.global	_ZplRK15StringSumHelperl
	.type	_ZplRK15StringSumHelperl, @function
_ZplRK15StringSumHelperl:
.LFB132:
	.loc 2 396 0
	.cfi_startproc
.LVL240:
	push r28
.LCFI172:
	.cfi_def_cfa_offset 3
	.cfi_offset 28, -2
	push r29
.LCFI173:
	.cfi_def_cfa_offset 4
	.cfi_offset 29, -3
/* prologue: function */
/* frame size = 0 */
/* stack size = 2 */
.L__stack_usage = 2
	movw r28,r24
.LVL241:
.LBB206:
	.loc 2 398 0
	call _ZN6String6concatEl
.LVL242:
	cpse r24,__zero_reg__
	rjmp .L119
	.loc 2 398 0 is_stmt 0 discriminator 1
	movw r24,r28
	call _ZN6String10invalidateEv
.LVL243:
.L119:
.LBE206:
	.loc 2 400 0 is_stmt 1
	movw r24,r28
/* epilogue start */
	pop r29
	pop r28
.LVL244:
	ret
	.cfi_endproc
.LFE132:
	.size	_ZplRK15StringSumHelperl, .-_ZplRK15StringSumHelperl
	.section	.text._ZplRK15StringSumHelperm,"ax",@progbits
.global	_ZplRK15StringSumHelperm
	.type	_ZplRK15StringSumHelperm, @function
_ZplRK15StringSumHelperm:
.LFB133:
	.loc 2 403 0
	.cfi_startproc
.LVL245:
	push r28
.LCFI174:
	.cfi_def_cfa_offset 3
	.cfi_offset 28, -2
	push r29
.LCFI175:
	.cfi_def_cfa_offset 4
	.cfi_offset 29, -3
/* prologue: function */
/* frame size = 0 */
/* stack size = 2 */
.L__stack_usage = 2
	movw r28,r24
.LVL246:
.LBB207:
	.loc 2 405 0
	call _ZN6String6concatEm
.LVL247:
	cpse r24,__zero_reg__
	rjmp .L121
	.loc 2 405 0 is_stmt 0 discriminator 1
	movw r24,r28
	call _ZN6String10invalidateEv
.LVL248:
.L121:
.LBE207:
	.loc 2 407 0 is_stmt 1
	movw r24,r28
/* epilogue start */
	pop r29
	pop r28
.LVL249:
	ret
	.cfi_endproc
.LFE133:
	.size	_ZplRK15StringSumHelperm, .-_ZplRK15StringSumHelperm
	.section	.text._ZplRK15StringSumHelperf,"ax",@progbits
.global	_ZplRK15StringSumHelperf
	.type	_ZplRK15StringSumHelperf, @function
_ZplRK15StringSumHelperf:
.LFB134:
	.loc 2 410 0
	.cfi_startproc
.LVL250:
	push r28
.LCFI176:
	.cfi_def_cfa_offset 3
	.cfi_offset 28, -2
	push r29
.LCFI177:
	.cfi_def_cfa_offset 4
	.cfi_offset 29, -3
/* prologue: function */
/* frame size = 0 */
/* stack size = 2 */
.L__stack_usage = 2
	movw r28,r24
.LVL251:
.LBB208:
	.loc 2 412 0
	call _ZN6String6concatEf
.LVL252:
	cpse r24,__zero_reg__
	rjmp .L123
	.loc 2 412 0 is_stmt 0 discriminator 1
	movw r24,r28
	call _ZN6String10invalidateEv
.LVL253:
.L123:
.LBE208:
	.loc 2 414 0 is_stmt 1
	movw r24,r28
/* epilogue start */
	pop r29
	pop r28
.LVL254:
	ret
	.cfi_endproc
.LFE134:
	.size	_ZplRK15StringSumHelperf, .-_ZplRK15StringSumHelperf
	.section	.text._ZplRK15StringSumHelperd,"ax",@progbits
.global	_ZplRK15StringSumHelperd
	.type	_ZplRK15StringSumHelperd, @function
_ZplRK15StringSumHelperd:
.LFB135:
	.loc 2 417 0
	.cfi_startproc
.LVL255:
	push r28
.LCFI178:
	.cfi_def_cfa_offset 3
	.cfi_offset 28, -2
	push r29
.LCFI179:
	.cfi_def_cfa_offset 4
	.cfi_offset 29, -3
/* prologue: function */
/* frame size = 0 */
/* stack size = 2 */
.L__stack_usage = 2
	movw r28,r24
.LVL256:
.LBB209:
	.loc 2 419 0
	call _ZN6String6concatEd
.LVL257:
	cpse r24,__zero_reg__
	rjmp .L125
	.loc 2 419 0 is_stmt 0 discriminator 1
	movw r24,r28
	call _ZN6String10invalidateEv
.LVL258:
.L125:
.LBE209:
	.loc 2 421 0 is_stmt 1
	movw r24,r28
/* epilogue start */
	pop r29
	pop r28
.LVL259:
	ret
	.cfi_endproc
.LFE135:
	.size	_ZplRK15StringSumHelperd, .-_ZplRK15StringSumHelperd
	.section	.text._ZplRK15StringSumHelperPK19__FlashStringHelper,"ax",@progbits
.global	_ZplRK15StringSumHelperPK19__FlashStringHelper
	.type	_ZplRK15StringSumHelperPK19__FlashStringHelper, @function
_ZplRK15StringSumHelperPK19__FlashStringHelper:
.LFB136:
	.loc 2 424 0
	.cfi_startproc
.LVL260:
	push r28
.LCFI180:
	.cfi_def_cfa_offset 3
	.cfi_offset 28, -2
	push r29
.LCFI181:
	.cfi_def_cfa_offset 4
	.cfi_offset 29, -3
/* prologue: function */
/* frame size = 0 */
/* stack size = 2 */
.L__stack_usage = 2
	movw r28,r24
.LVL261:
.LBB210:
	.loc 2 426 0
	call _ZN6String6concatEPK19__FlashStringHelper
.LVL262:
	cpse r24,__zero_reg__
	rjmp .L127
	.loc 2 426 0 is_stmt 0 discriminator 1
	movw r24,r28
	call _ZN6String10invalidateEv
.LVL263:
.L127:
.LBE210:
	.loc 2 428 0 is_stmt 1
	movw r24,r28
/* epilogue start */
	pop r29
	pop r28
.LVL264:
	ret
	.cfi_endproc
.LFE136:
	.size	_ZplRK15StringSumHelperPK19__FlashStringHelper, .-_ZplRK15StringSumHelperPK19__FlashStringHelper
	.section	.text._ZNK6String9compareToERKS_,"ax",@progbits
.global	_ZNK6String9compareToERKS_
	.type	_ZNK6String9compareToERKS_, @function
_ZNK6String9compareToERKS_:
.LFB137:
	.loc 2 435 0
	.cfi_startproc
.LVL265:
	push r28
.LCFI182:
	.cfi_def_cfa_offset 3
	.cfi_offset 28, -2
	push r29
.LCFI183:
	.cfi_def_cfa_offset 4
	.cfi_offset 29, -3
/* prologue: function */
/* frame size = 0 */
/* stack size = 2 */
.L__stack_usage = 2
	.loc 2 436 0
	movw r26,r24
	ld r30,X+
	ld r31,X
	movw r28,r22
	ld r26,Y
	ldd r27,Y+1
	sbiw r30,0
	breq .L129
	.loc 2 436 0 is_stmt 0 discriminator 1
	sbiw r26,0
	brne .L130
.L129:
	.loc 2 437 0 is_stmt 1
	sbiw r26,0
	breq .L131
	.loc 2 437 0 is_stmt 0 discriminator 1
	movw r28,r22
	ldd r18,Y+4
	ldd r19,Y+5
	or r18,r19
	breq .L131
	.loc 2 437 0 discriminator 2
	ld r24,X
.LVL266:
	ldi r25,0
	neg r25
	neg r24
	sbc r25,__zero_reg__
	rjmp .L132
.LVL267:
.L131:
	.loc 2 438 0 is_stmt 1
	sbiw r30,0
	breq .L134
	.loc 2 438 0 is_stmt 0 discriminator 1
	movw r26,r24
	adiw r26,4
	ld r24,X+
	ld r25,X
	sbiw r26,4+1
.LVL268:
	or r24,r25
	breq .L134
	.loc 2 438 0 discriminator 2
	ld r24,Z
	ldi r25,0
	rjmp .L132
.LVL269:
.L130:
	.loc 2 441 0 is_stmt 1
	movw r22,r26
.LVL270:
	movw r24,r30
.LVL271:
/* epilogue start */
	.loc 2 442 0
	pop r29
	pop r28
.LVL272:
	.loc 2 441 0
	jmp strcmp
.LVL273:
.L134:
	.loc 2 439 0
	ldi r24,0
	ldi r25,0
.L132:
/* epilogue start */
	.loc 2 442 0
	pop r29
	pop r28
	ret
	.cfi_endproc
.LFE137:
	.size	_ZNK6String9compareToERKS_, .-_ZNK6String9compareToERKS_
	.section	.text._ZNK6String6equalsERKS_,"ax",@progbits
.global	_ZNK6String6equalsERKS_
	.type	_ZNK6String6equalsERKS_, @function
_ZNK6String6equalsERKS_:
.LFB138:
	.loc 2 445 0
	.cfi_startproc
.LVL274:
/* prologue: function */
/* frame size = 0 */
/* stack size = 0 */
.L__stack_usage = 0
	.loc 2 446 0
	movw r30,r24
	ldd r20,Z+4
	ldd r21,Z+5
	movw r30,r22
	ldd r18,Z+4
	ldd r19,Z+5
	cp r20,r18
	cpc r21,r19
	brne .L147
	.loc 2 446 0 is_stmt 0 discriminator 1
	call _ZNK6String9compareToERKS_
.LVL275:
	ldi r18,lo8(1)
	or r24,r25
	breq .L145
.L147:
	.loc 2 446 0
	ldi r18,0
.L145:
	.loc 2 447 0 is_stmt 1 discriminator 6
	mov r24,r18
	ret
	.cfi_endproc
.LFE138:
	.size	_ZNK6String6equalsERKS_, .-_ZNK6String6equalsERKS_
	.section	.text._ZNK6String6equalsEPKc,"ax",@progbits
.global	_ZNK6String6equalsEPKc
	.type	_ZNK6String6equalsEPKc, @function
_ZNK6String6equalsEPKc:
.LFB139:
	.loc 2 450 0
	.cfi_startproc
.LVL276:
/* prologue: function */
/* frame size = 0 */
/* stack size = 0 */
.L__stack_usage = 0
	.loc 2 451 0
	movw r30,r24
	ldd r18,Z+4
	ldd r19,Z+5
	or r18,r19
	brne .L152
	.loc 2 451 0 is_stmt 0 discriminator 1
	ldi r18,lo8(1)
	cp r22,__zero_reg__
	cpc r23,__zero_reg__
	breq .L155
	.loc 2 451 0 discriminator 3
	movw r30,r22
	rjmp .L170
.L152:
	movw r30,r24
	ld r24,Z
	ldd r25,Z+1
.LVL277:
	.loc 2 452 0 is_stmt 1
	cp r22,__zero_reg__
	cpc r23,__zero_reg__
	brne .L156
	.loc 2 452 0 is_stmt 0 discriminator 1
	ldi r18,lo8(1)
	movw r30,r24
.LVL278:
.L170:
	ld r24,Z
	tst r24
	breq .L155
	rjmp .L169
.LVL279:
.L156:
	.loc 2 453 0 is_stmt 1
	call strcmp
.LVL280:
	ldi r18,lo8(1)
	or r24,r25
	breq .L155
.L169:
	ldi r18,0
.L155:
	.loc 2 454 0
	mov r24,r18
	ret
	.cfi_endproc
.LFE139:
	.size	_ZNK6String6equalsEPKc, .-_ZNK6String6equalsEPKc
	.section	.text._ZNK6StringltERKS_,"ax",@progbits
.global	_ZNK6StringltERKS_
	.type	_ZNK6StringltERKS_, @function
_ZNK6StringltERKS_:
.LFB140:
	.loc 2 457 0
	.cfi_startproc
.LVL281:
/* prologue: function */
/* frame size = 0 */
/* stack size = 0 */
.L__stack_usage = 0
	.loc 2 458 0
	call _ZNK6String9compareToERKS_
.LVL282:
	.loc 2 459 0
	mov r24,r25
	rol r24
	clr r24
	rol r24
	ret
	.cfi_endproc
.LFE140:
	.size	_ZNK6StringltERKS_, .-_ZNK6StringltERKS_
	.section	.text._ZNK6StringgtERKS_,"ax",@progbits
.global	_ZNK6StringgtERKS_
	.type	_ZNK6StringgtERKS_, @function
_ZNK6StringgtERKS_:
.LFB141:
	.loc 2 462 0
	.cfi_startproc
.LVL283:
/* prologue: function */
/* frame size = 0 */
/* stack size = 0 */
.L__stack_usage = 0
	.loc 2 463 0
	call _ZNK6String9compareToERKS_
.LVL284:
	ldi r18,lo8(1)
	cp __zero_reg__,r24
	cpc __zero_reg__,r25
	brlt .L173
	ldi r18,0
.L173:
	.loc 2 464 0
	mov r24,r18
	ret
	.cfi_endproc
.LFE141:
	.size	_ZNK6StringgtERKS_, .-_ZNK6StringgtERKS_
	.section	.text._ZNK6StringleERKS_,"ax",@progbits
.global	_ZNK6StringleERKS_
	.type	_ZNK6StringleERKS_, @function
_ZNK6StringleERKS_:
.LFB142:
	.loc 2 467 0
	.cfi_startproc
.LVL285:
/* prologue: function */
/* frame size = 0 */
/* stack size = 0 */
.L__stack_usage = 0
	.loc 2 468 0
	call _ZNK6String9compareToERKS_
.LVL286:
	ldi r18,lo8(1)
	cp __zero_reg__,r24
	cpc __zero_reg__,r25
	brge .L175
	ldi r18,0
.L175:
	.loc 2 469 0
	mov r24,r18
	ret
	.cfi_endproc
.LFE142:
	.size	_ZNK6StringleERKS_, .-_ZNK6StringleERKS_
	.section	.text._ZNK6StringgeERKS_,"ax",@progbits
.global	_ZNK6StringgeERKS_
	.type	_ZNK6StringgeERKS_, @function
_ZNK6StringgeERKS_:
.LFB143:
	.loc 2 472 0
	.cfi_startproc
.LVL287:
/* prologue: function */
/* frame size = 0 */
/* stack size = 0 */
.L__stack_usage = 0
	.loc 2 473 0
	call _ZNK6String9compareToERKS_
.LVL288:
	mov r24,r25
	com r24
	.loc 2 474 0
	rol r24
	clr r24
	rol r24
	ret
	.cfi_endproc
.LFE143:
	.size	_ZNK6StringgeERKS_, .-_ZNK6StringgeERKS_
	.section	.text._ZNK6String16equalsIgnoreCaseERKS_,"ax",@progbits
.global	_ZNK6String16equalsIgnoreCaseERKS_
	.type	_ZNK6String16equalsIgnoreCaseERKS_, @function
_ZNK6String16equalsIgnoreCaseERKS_:
.LFB144:
	.loc 2 477 0
	.cfi_startproc
.LVL289:
	push r14
.LCFI184:
	.cfi_def_cfa_offset 3
	.cfi_offset 14, -2
	push r15
.LCFI185:
	.cfi_def_cfa_offset 4
	.cfi_offset 15, -3
	push r16
.LCFI186:
	.cfi_def_cfa_offset 5
	.cfi_offset 16, -4
	push r17
.LCFI187:
	.cfi_def_cfa_offset 6
	.cfi_offset 17, -5
	push r28
.LCFI188:
	.cfi_def_cfa_offset 7
	.cfi_offset 28, -6
	push r29
.LCFI189:
	.cfi_def_cfa_offset 8
	.cfi_offset 29, -7
/* prologue: function */
/* frame size = 0 */
/* stack size = 6 */
.L__stack_usage = 6
.LBB211:
	.loc 2 478 0
	cp r24,r22
	cpc r25,r23
	breq .L183
	.loc 2 479 0
	movw r30,r24
	ldd r18,Z+4
	ldd r19,Z+5
	movw r30,r22
	ldd r20,Z+4
	ldd r21,Z+5
	cp r18,r20
	cpc r19,r21
	brne .L184
	.loc 2 480 0
	or r18,r19
	breq .L183
	movw r26,r24
.LVL290:
	ld r28,X+
	ld r29,X
	ld r16,Z
	ldd r17,Z+1
.LVL291:
.L179:
	.loc 2 483 0
	ld r24,Y+
.LVL292:
	tst r24
	breq .L183
.LVL293:
	.loc 2 484 0
	mov __tmp_reg__,r24
	lsl r0
	sbc r25,r25
	call tolower
.LVL294:
	movw r14,r24
	movw r30,r16
	ld r24,Z+
	movw r16,r30
	mov __tmp_reg__,r24
	lsl r0
	sbc r25,r25
	call tolower
.LVL295:
	cp r14,r24
	cpc r15,r25
	breq .L179
	rjmp .L184
.LVL296:
.L183:
	.loc 2 478 0
	ldi r24,lo8(1)
	rjmp .L178
.L184:
	.loc 2 479 0
	ldi r24,0
.L178:
/* epilogue start */
.LBE211:
	.loc 2 487 0
	pop r29
	pop r28
	pop r17
	pop r16
	pop r15
	pop r14
	ret
	.cfi_endproc
.LFE144:
	.size	_ZNK6String16equalsIgnoreCaseERKS_, .-_ZNK6String16equalsIgnoreCaseERKS_
	.section	.text._ZNK6String10startsWithERKS_j,"ax",@progbits
.global	_ZNK6String10startsWithERKS_j
	.type	_ZNK6String10startsWithERKS_j, @function
_ZNK6String10startsWithERKS_j:
.LFB146:
	.loc 2 496 0
	.cfi_startproc
.LVL297:
/* prologue: function */
/* frame size = 0 */
/* stack size = 0 */
.L__stack_usage = 0
	.loc 2 497 0
	movw r26,r22
	adiw r26,4
	ld r30,X+
	ld r31,X
	sbiw r26,4+1
	movw r26,r24
	adiw r26,4
	ld r18,X+
	ld r19,X
	sbiw r26,4+1
	sub r18,r30
	sbc r19,r31
	cp r18,r20
	cpc r19,r21
	brlo .L190
	.loc 2 497 0 is_stmt 0 discriminator 2
	ld r18,X+
	ld r19,X
	cp r18,__zero_reg__
	cpc r19,__zero_reg__
	breq .L190
	.loc 2 497 0 discriminator 4
	movw r26,r22
	ld r22,X+
	ld r23,X
.LVL298:
	cp r22,__zero_reg__
	cpc r23,__zero_reg__
	breq .L190
	movw r24,r20
.LVL299:
	.loc 2 498 0 is_stmt 1
	movw r20,r30
.LVL300:
	add r24,r18
	adc r25,r19
.LVL301:
	call strncmp
.LVL302:
	ldi r18,lo8(1)
	or r24,r25
	breq .L186
.L190:
	.loc 2 497 0
	ldi r18,0
.L186:
	.loc 2 499 0
	mov r24,r18
	ret
	.cfi_endproc
.LFE146:
	.size	_ZNK6String10startsWithERKS_j, .-_ZNK6String10startsWithERKS_j
	.section	.text._ZNK6String10startsWithERKS_,"ax",@progbits
.global	_ZNK6String10startsWithERKS_
	.type	_ZNK6String10startsWithERKS_, @function
_ZNK6String10startsWithERKS_:
.LFB145:
	.loc 2 490 0
	.cfi_startproc
.LVL303:
/* prologue: function */
/* frame size = 0 */
/* stack size = 0 */
.L__stack_usage = 0
	.loc 2 491 0
	movw r30,r24
	ldd r20,Z+4
	ldd r21,Z+5
	movw r30,r22
	ldd r18,Z+4
	ldd r19,Z+5
	cp r20,r18
	cpc r21,r19
	brlo .L195
	.loc 2 492 0
	ldi r20,0
	ldi r21,0
	jmp _ZNK6String10startsWithERKS_j
.LVL304:
.L195:
	.loc 2 493 0
	ldi r24,0
.LVL305:
	ret
	.cfi_endproc
.LFE145:
	.size	_ZNK6String10startsWithERKS_, .-_ZNK6String10startsWithERKS_
	.section	.text._ZNK6String8endsWithERKS_,"ax",@progbits
.global	_ZNK6String8endsWithERKS_
	.type	_ZNK6String8endsWithERKS_, @function
_ZNK6String8endsWithERKS_:
.LFB147:
	.loc 2 502 0
	.cfi_startproc
.LVL306:
/* prologue: function */
/* frame size = 0 */
/* stack size = 0 */
.L__stack_usage = 0
	.loc 2 503 0
	movw r30,r24
	ldd r18,Z+4
	ldd r19,Z+5
	movw r30,r22
	ldd r20,Z+4
	ldd r21,Z+5
	cp r18,r20
	cpc r19,r21
	brlo .L201
	.loc 2 503 0 is_stmt 0 discriminator 2
	movw r30,r24
	ld r24,Z
	ldd r25,Z+1
.LVL307:
	sbiw r24,0
	breq .L201
	.loc 2 503 0 discriminator 4
	movw r30,r22
.LVL308:
	ld r22,Z
	ldd r23,Z+1
.LVL309:
	cp r22,__zero_reg__
	cpc r23,__zero_reg__
	breq .L201
	.loc 2 504 0 is_stmt 1
	sub r18,r20
	sbc r19,r21
	add r24,r18
	adc r25,r19
	call strcmp
.LVL310:
	ldi r18,lo8(1)
	or r24,r25
	breq .L197
.L201:
	.loc 2 503 0
	ldi r18,0
.L197:
	.loc 2 505 0
	mov r24,r18
	ret
	.cfi_endproc
.LFE147:
	.size	_ZNK6String8endsWithERKS_, .-_ZNK6String8endsWithERKS_
	.section	.text._ZN6String9setCharAtEjc,"ax",@progbits
.global	_ZN6String9setCharAtEjc
	.type	_ZN6String9setCharAtEjc, @function
_ZN6String9setCharAtEjc:
.LFB149:
	.loc 2 517 0
	.cfi_startproc
.LVL311:
/* prologue: function */
/* frame size = 0 */
/* stack size = 0 */
.L__stack_usage = 0
	.loc 2 518 0
	movw r30,r24
	ldd r18,Z+4
	ldd r19,Z+5
	cp r22,r18
	cpc r23,r19
	brsh .L205
	.loc 2 518 0 is_stmt 0 discriminator 1
	ld r24,Z
	ldd r25,Z+1
.LVL312:
	movw r30,r24
.LVL313:
	add r30,r22
	adc r31,r23
	st Z,r20
.L205:
	ret
	.cfi_endproc
.LFE149:
	.size	_ZN6String9setCharAtEjc, .-_ZN6String9setCharAtEjc
	.section	.text._ZN6StringixEj,"ax",@progbits
.global	_ZN6StringixEj
	.type	_ZN6StringixEj, @function
_ZN6StringixEj:
.LFB150:
	.loc 2 522 0 is_stmt 1
	.cfi_startproc
.LVL314:
/* prologue: function */
/* frame size = 0 */
/* stack size = 0 */
.L__stack_usage = 0
.LBB212:
	.loc 2 524 0
	movw r30,r24
	ldd r18,Z+4
	ldd r19,Z+5
	cp r22,r18
	cpc r23,r19
	brsh .L208
	.loc 2 524 0 is_stmt 0 discriminator 1
	ld r24,Z
	ldd r25,Z+1
.LVL315:
	sbiw r24,0
	brne .L209
.L208:
	.loc 2 525 0 is_stmt 1
	sts _ZZN6StringixEjE19dummy_writable_char,__zero_reg__
	.loc 2 526 0
	ldi r24,lo8(_ZZN6StringixEjE19dummy_writable_char)
	ldi r25,hi8(_ZZN6StringixEjE19dummy_writable_char)
	ret
.L209:
	.loc 2 528 0
	add r24,r22
	adc r25,r23
.LBE212:
	.loc 2 529 0
	ret
	.cfi_endproc
.LFE150:
	.size	_ZN6StringixEj, .-_ZN6StringixEj
	.section	.text._ZNK6StringixEj,"ax",@progbits
.global	_ZNK6StringixEj
	.type	_ZNK6StringixEj, @function
_ZNK6StringixEj:
.LFB151:
	.loc 2 532 0
	.cfi_startproc
.LVL316:
/* prologue: function */
/* frame size = 0 */
/* stack size = 0 */
.L__stack_usage = 0
	.loc 2 533 0
	movw r30,r24
	ldd r18,Z+4
	ldd r19,Z+5
	cp r22,r18
	cpc r23,r19
	brsh .L214
.LVL317:
.LBB215:
.LBB216:
	ld r24,Z
	ldd r25,Z+1
.LVL318:
	sbiw r24,0
	breq .L214
	.loc 2 534 0
	movw r30,r24
.LVL319:
	add r30,r22
	adc r31,r23
	ld r24,Z
	ret
.LVL320:
.L214:
.LBE216:
.LBE215:
	.loc 2 533 0
	ldi r24,0
	.loc 2 535 0
	ret
	.cfi_endproc
.LFE151:
	.size	_ZNK6StringixEj, .-_ZNK6StringixEj
	.section	.text._ZNK6String6charAtEj,"ax",@progbits
.global	_ZNK6String6charAtEj
	.type	_ZNK6String6charAtEj, @function
_ZNK6String6charAtEj:
.LFB148:
	.loc 2 512 0
	.cfi_startproc
.LVL321:
/* prologue: function */
/* frame size = 0 */
/* stack size = 0 */
.L__stack_usage = 0
	.loc 2 513 0
	jmp _ZNK6StringixEj
.LVL322:
	.cfi_endproc
.LFE148:
	.size	_ZNK6String6charAtEj, .-_ZNK6String6charAtEj
	.section	.text._ZNK6String8getBytesEPhjj,"ax",@progbits
.global	_ZNK6String8getBytesEPhjj
	.type	_ZNK6String8getBytesEPhjj, @function
_ZNK6String8getBytesEPhjj:
.LFB152:
	.loc 2 538 0
	.cfi_startproc
.LVL323:
	push r16
.LCFI190:
	.cfi_def_cfa_offset 3
	.cfi_offset 16, -2
	push r17
.LCFI191:
	.cfi_def_cfa_offset 4
	.cfi_offset 17, -3
	push r28
.LCFI192:
	.cfi_def_cfa_offset 5
	.cfi_offset 28, -4
	push r29
.LCFI193:
	.cfi_def_cfa_offset 6
	.cfi_offset 29, -5
/* prologue: function */
/* frame size = 0 */
/* stack size = 4 */
.L__stack_usage = 4
.LBB217:
	.loc 2 539 0
	cp r20,__zero_reg__
	cpc r21,__zero_reg__
	breq .L216
	.loc 2 539 0 is_stmt 0 discriminator 1
	cp r22,__zero_reg__
	cpc r23,__zero_reg__
	breq .L216
	.loc 2 540 0 is_stmt 1
	movw r26,r24
	adiw r26,4
	ld r30,X+
	ld r31,X
	sbiw r26,4+1
	cp r18,r30
	cpc r19,r31
	brlo .L218
	.loc 2 541 0
	movw r30,r22
	st Z,__zero_reg__
	.loc 2 542 0
	rjmp .L216
.L218:
.LVL324:
	.loc 2 545 0
	sub r30,r18
	sbc r31,r19
	movw r28,r20
	sbiw r28,1
.LVL325:
	cp r30,r28
	cpc r31,r29
	brsh .L219
	movw r28,r30
.LVL326:
.L219:
	movw r16,r22
	movw r30,r24
.LVL327:
	.loc 2 546 0
	ld r22,Z
	ldd r23,Z+1
.LVL328:
	add r22,r18
	adc r23,r19
	movw r20,r28
.LVL329:
	movw r24,r16
.LVL330:
	call strncpy
.LVL331:
	.loc 2 547 0
	add r28,r16
	adc r29,r17
.LVL332:
	st Y,__zero_reg__
.LVL333:
.L216:
/* epilogue start */
.LBE217:
	.loc 2 548 0
	pop r29
	pop r28
	pop r17
	pop r16
	ret
	.cfi_endproc
.LFE152:
	.size	_ZNK6String8getBytesEPhjj, .-_ZNK6String8getBytesEPhjj
	.section	.text._ZNK6String7indexOfEcj,"ax",@progbits
.global	_ZNK6String7indexOfEcj
	.type	_ZNK6String7indexOfEcj, @function
_ZNK6String7indexOfEcj:
.LFB154:
	.loc 2 560 0
	.cfi_startproc
.LVL334:
	push r28
.LCFI194:
	.cfi_def_cfa_offset 3
	.cfi_offset 28, -2
	push r29
.LCFI195:
	.cfi_def_cfa_offset 4
	.cfi_offset 29, -3
/* prologue: function */
/* frame size = 0 */
/* stack size = 2 */
.L__stack_usage = 2
.LBB218:
	.loc 2 561 0
	movw r30,r24
	ldd r18,Z+4
	ldd r19,Z+5
	cp r20,r18
	cpc r21,r19
	brsh .L229
	.loc 2 562 0
	ld r28,Z
	ldd r29,Z+1
	mov __tmp_reg__,r22
	lsl r0
	sbc r23,r23
	movw r24,r28
.LVL335:
	add r24,r20
	adc r25,r21
	call strchr
.LVL336:
	.loc 2 563 0
	sbiw r24,0
	breq .L229
	.loc 2 564 0
	sub r24,r28
	sbc r25,r29
.LVL337:
	rjmp .L227
.L229:
	.loc 2 561 0
	ldi r24,lo8(-1)
	ldi r25,lo8(-1)
.L227:
/* epilogue start */
.LBE218:
	.loc 2 565 0
	pop r29
	pop r28
	ret
	.cfi_endproc
.LFE154:
	.size	_ZNK6String7indexOfEcj, .-_ZNK6String7indexOfEcj
	.section	.text._ZNK6String7indexOfEc,"ax",@progbits
.global	_ZNK6String7indexOfEc
	.type	_ZNK6String7indexOfEc, @function
_ZNK6String7indexOfEc:
.LFB153:
	.loc 2 555 0
	.cfi_startproc
.LVL338:
/* prologue: function */
/* frame size = 0 */
/* stack size = 0 */
.L__stack_usage = 0
	.loc 2 556 0
	ldi r20,0
	ldi r21,0
	jmp _ZNK6String7indexOfEcj
.LVL339:
	.cfi_endproc
.LFE153:
	.size	_ZNK6String7indexOfEc, .-_ZNK6String7indexOfEc
	.section	.text._ZNK6String7indexOfERKS_j,"ax",@progbits
.global	_ZNK6String7indexOfERKS_j
	.type	_ZNK6String7indexOfERKS_j, @function
_ZNK6String7indexOfERKS_j:
.LFB156:
	.loc 2 573 0
	.cfi_startproc
.LVL340:
	push r28
.LCFI196:
	.cfi_def_cfa_offset 3
	.cfi_offset 28, -2
	push r29
.LCFI197:
	.cfi_def_cfa_offset 4
	.cfi_offset 29, -3
/* prologue: function */
/* frame size = 0 */
/* stack size = 2 */
.L__stack_usage = 2
.LBB219:
	.loc 2 574 0
	movw r30,r24
	ldd r18,Z+4
	ldd r19,Z+5
	cp r20,r18
	cpc r21,r19
	brsh .L234
	movw r30,r22
	movw r26,r24
	.loc 2 575 0
	ld r28,X+
	ld r29,X
	ld r22,Z
	ldd r23,Z+1
.LVL341:
	movw r24,r28
.LVL342:
	add r24,r20
	adc r25,r21
	call strstr
.LVL343:
	.loc 2 576 0
	sbiw r24,0
	breq .L234
	.loc 2 577 0
	sub r24,r28
	sbc r25,r29
.LVL344:
	rjmp .L232
.L234:
	.loc 2 574 0
	ldi r24,lo8(-1)
	ldi r25,lo8(-1)
.L232:
/* epilogue start */
.LBE219:
	.loc 2 578 0
	pop r29
	pop r28
	ret
	.cfi_endproc
.LFE156:
	.size	_ZNK6String7indexOfERKS_j, .-_ZNK6String7indexOfERKS_j
	.section	.text._ZNK6String7indexOfERKS_,"ax",@progbits
.global	_ZNK6String7indexOfERKS_
	.type	_ZNK6String7indexOfERKS_, @function
_ZNK6String7indexOfERKS_:
.LFB155:
	.loc 2 568 0
	.cfi_startproc
.LVL345:
/* prologue: function */
/* frame size = 0 */
/* stack size = 0 */
.L__stack_usage = 0
	.loc 2 569 0
	ldi r20,0
	ldi r21,0
	jmp _ZNK6String7indexOfERKS_j
.LVL346:
	.cfi_endproc
.LFE155:
	.size	_ZNK6String7indexOfERKS_, .-_ZNK6String7indexOfERKS_
	.section	.text._ZNK6String11lastIndexOfEcj,"ax",@progbits
.global	_ZNK6String11lastIndexOfEcj
	.type	_ZNK6String11lastIndexOfEcj, @function
_ZNK6String11lastIndexOfEcj:
.LFB158:
	.loc 2 586 0
	.cfi_startproc
.LVL347:
	push r13
.LCFI198:
	.cfi_def_cfa_offset 3
	.cfi_offset 13, -2
	push r14
.LCFI199:
	.cfi_def_cfa_offset 4
	.cfi_offset 14, -3
	push r15
.LCFI200:
	.cfi_def_cfa_offset 5
	.cfi_offset 15, -4
	push r16
.LCFI201:
	.cfi_def_cfa_offset 6
	.cfi_offset 16, -5
	push r17
.LCFI202:
	.cfi_def_cfa_offset 7
	.cfi_offset 17, -6
	push r28
.LCFI203:
	.cfi_def_cfa_offset 8
	.cfi_offset 28, -7
	push r29
.LCFI204:
	.cfi_def_cfa_offset 9
	.cfi_offset 29, -8
/* prologue: function */
/* frame size = 0 */
/* stack size = 7 */
.L__stack_usage = 7
.LBB220:
	.loc 2 587 0
	movw r26,r24
	adiw r26,4
	ld r18,X+
	ld r19,X
	sbiw r26,4+1
	cp r20,r18
	cpc r21,r19
	brlo .L237
.LVL348:
.L239:
	ldi r24,lo8(-1)
	ldi r25,lo8(-1)
	rjmp .L238
.LVL349:
.L237:
	movw r16,r24
	.loc 2 588 0
	movw r28,r20
	adiw r28,1
	movw r26,r24
	ld r30,X+
	ld r31,X
	sbiw r26,1
	add r30,r28
	adc r31,r29
	ld r13,Z
.LVL350:
	.loc 2 589 0
	st Z,__zero_reg__
	.loc 2 590 0
	ld r14,X+
	ld r15,X
	mov __tmp_reg__,r22
	lsl r0
	sbc r23,r23
	movw r24,r14
.LVL351:
	call strrchr
.LVL352:
	.loc 2 591 0
	add r28,r14
	adc r29,r15
.LVL353:
	st Y,r13
	.loc 2 592 0
	sbiw r24,0
	breq .L239
	.loc 2 593 0
	movw r30,r16
	ld r18,Z
	ldd r19,Z+1
	sub r24,r18
	sbc r25,r19
.LVL354:
.L238:
/* epilogue start */
.LBE220:
	.loc 2 594 0
	pop r29
	pop r28
	pop r17
	pop r16
	pop r15
	pop r14
	pop r13
	ret
	.cfi_endproc
.LFE158:
	.size	_ZNK6String11lastIndexOfEcj, .-_ZNK6String11lastIndexOfEcj
	.section	.text._ZNK6String11lastIndexOfEc,"ax",@progbits
.global	_ZNK6String11lastIndexOfEc
	.type	_ZNK6String11lastIndexOfEc, @function
_ZNK6String11lastIndexOfEc:
.LFB157:
	.loc 2 581 0
	.cfi_startproc
.LVL355:
/* prologue: function */
/* frame size = 0 */
/* stack size = 0 */
.L__stack_usage = 0
	.loc 2 582 0
	movw r30,r24
	ldd r20,Z+4
	ldd r21,Z+5
	subi r20,1
	sbc r21,__zero_reg__
	jmp _ZNK6String11lastIndexOfEcj
.LVL356:
	.cfi_endproc
.LFE157:
	.size	_ZNK6String11lastIndexOfEc, .-_ZNK6String11lastIndexOfEc
	.section	.text._ZNK6String11lastIndexOfERKS_j,"ax",@progbits
.global	_ZNK6String11lastIndexOfERKS_j
	.type	_ZNK6String11lastIndexOfERKS_j, @function
_ZNK6String11lastIndexOfERKS_j:
.LFB160:
	.loc 2 602 0
	.cfi_startproc
.LVL357:
	push r10
.LCFI205:
	.cfi_def_cfa_offset 3
	.cfi_offset 10, -2
	push r11
.LCFI206:
	.cfi_def_cfa_offset 4
	.cfi_offset 11, -3
	push r12
.LCFI207:
	.cfi_def_cfa_offset 5
	.cfi_offset 12, -4
	push r13
.LCFI208:
	.cfi_def_cfa_offset 6
	.cfi_offset 13, -5
	push r14
.LCFI209:
	.cfi_def_cfa_offset 7
	.cfi_offset 14, -6
	push r15
.LCFI210:
	.cfi_def_cfa_offset 8
	.cfi_offset 15, -7
	push r16
.LCFI211:
	.cfi_def_cfa_offset 9
	.cfi_offset 16, -8
	push r17
.LCFI212:
	.cfi_def_cfa_offset 10
	.cfi_offset 17, -9
	push r28
.LCFI213:
	.cfi_def_cfa_offset 11
	.cfi_offset 28, -10
	push r29
.LCFI214:
	.cfi_def_cfa_offset 12
	.cfi_offset 29, -11
/* prologue: function */
/* frame size = 0 */
/* stack size = 10 */
.L__stack_usage = 10
	movw r14,r22
	movw r16,r20
.LBB221:
	.loc 2 603 0
	movw r30,r22
	ldd r20,Z+4
	ldd r21,Z+5
.LVL358:
	cp r20,__zero_reg__
	cpc r21,__zero_reg__
	breq .L252
	.loc 2 603 0 is_stmt 0 discriminator 2
	movw r30,r24
	ldd r18,Z+4
	ldd r19,Z+5
	cp r18,__zero_reg__
	cpc r19,__zero_reg__
	breq .L252
	.loc 2 603 0 discriminator 4
	cp r18,r20
	cpc r19,r21
	brlo .L252
	.loc 2 604 0 is_stmt 1
	cp r16,r18
	cpc r17,r19
	brlo .L246
	.loc 2 604 0 is_stmt 0 discriminator 1
	movw r16,r18
.LVL359:
	subi r16,1
	sbc r17,__zero_reg__
.LVL360:
.L246:
.LBB222:
	.loc 2 606 0 is_stmt 1
	movw r30,r24
	ld r10,Z
	ldd r11,Z+1
.LVL361:
	movw r24,r10
.LVL362:
.LBE222:
	.loc 2 605 0
	ldi r29,lo8(-1)
	ldi r28,lo8(-1)
.LBB223:
	.loc 2 606 0
	movw r12,r10
	add r12,r16
	adc r13,r17
.LVL363:
.L247:
	.loc 2 606 0 is_stmt 0 discriminator 1
	cp r12,r24
	cpc r13,r25
	brlo .L253
	.loc 2 607 0 is_stmt 1
	movw r30,r14
	ld r22,Z
	ldd r23,Z+1
	call strstr
.LVL364:
	.loc 2 608 0
	sbiw r24,0
	breq .L253
	.loc 2 609 0
	movw r18,r24
	sub r18,r10
	sbc r19,r11
	cp r16,r18
	cpc r17,r19
	brlo .L248
	mov r29,r18
.LVL365:
	mov r28,r19
.L248:
.LVL366:
	.loc 2 606 0 discriminator 2
	adiw r24,1
.LVL367:
	rjmp .L247
.LVL368:
.L252:
.LBE223:
	.loc 2 603 0
	ldi r24,lo8(-1)
.LVL369:
	ldi r25,lo8(-1)
	rjmp .L245
.LVL370:
.L253:
.LBB224:
	mov r24,r29
.LVL371:
	mov r25,r28
.LVL372:
.L245:
/* epilogue start */
.LBE224:
.LBE221:
	.loc 2 612 0
	pop r29
	pop r28
	pop r17
	pop r16
.LVL373:
	pop r15
	pop r14
.LVL374:
	pop r13
	pop r12
	pop r11
	pop r10
	ret
	.cfi_endproc
.LFE160:
	.size	_ZNK6String11lastIndexOfERKS_j, .-_ZNK6String11lastIndexOfERKS_j
	.section	.text._ZNK6String11lastIndexOfERKS_,"ax",@progbits
.global	_ZNK6String11lastIndexOfERKS_
	.type	_ZNK6String11lastIndexOfERKS_, @function
_ZNK6String11lastIndexOfERKS_:
.LFB159:
	.loc 2 597 0
	.cfi_startproc
.LVL375:
/* prologue: function */
/* frame size = 0 */
/* stack size = 0 */
.L__stack_usage = 0
	.loc 2 598 0
	movw r30,r24
	ldd r20,Z+4
	ldd r21,Z+5
	movw r30,r22
	ldd r18,Z+4
	ldd r19,Z+5
	sub r20,r18
	sbc r21,r19
	jmp _ZNK6String11lastIndexOfERKS_j
.LVL376:
	.cfi_endproc
.LFE159:
	.size	_ZNK6String11lastIndexOfERKS_, .-_ZNK6String11lastIndexOfERKS_
	.section	.rodata.str1.1,"aMS",@progbits,1
.LC0:
	.string	""
	.section	.text._ZNK6String9substringEjj,"ax",@progbits
.global	_ZNK6String9substringEjj
	.type	_ZNK6String9substringEjj, @function
_ZNK6String9substringEjj:
.LFB161:
	.loc 2 615 0
	.cfi_startproc
.LVL377:
	push r11
.LCFI215:
	.cfi_def_cfa_offset 3
	.cfi_offset 11, -2
	push r12
.LCFI216:
	.cfi_def_cfa_offset 4
	.cfi_offset 12, -3
	push r13
.LCFI217:
	.cfi_def_cfa_offset 5
	.cfi_offset 13, -4
	push r14
.LCFI218:
	.cfi_def_cfa_offset 6
	.cfi_offset 14, -5
	push r15
.LCFI219:
	.cfi_def_cfa_offset 7
	.cfi_offset 15, -6
	push r16
.LCFI220:
	.cfi_def_cfa_offset 8
	.cfi_offset 16, -7
	push r17
.LCFI221:
	.cfi_def_cfa_offset 9
	.cfi_offset 17, -8
	push r28
.LCFI222:
	.cfi_def_cfa_offset 10
	.cfi_offset 28, -9
	push r29
.LCFI223:
	.cfi_def_cfa_offset 11
	.cfi_offset 29, -10
/* prologue: function */
/* frame size = 0 */
/* stack size = 9 */
.L__stack_usage = 9
	movw r14,r24
	movw r12,r22
	movw r16,r20
	movw r28,r18
.LBB225:
.LBB226:
	.loc 2 616 0
	cp r18,r20
	cpc r19,r21
	brsh .L256
	mov r24,r17
.LVL378:
	movw r16,r18
	mov r28,r20
	mov r29,r24
.L256:
.LVL379:
.LBE226:
	.loc 2 621 0
	ldi r22,lo8(.LC0)
	ldi r23,hi8(.LC0)
.LVL380:
	movw r24,r14
	call _ZN6StringC2EPKc
.LVL381:
	.loc 2 622 0
	movw r26,r12
	adiw r26,4
	ld r24,X+
	ld r25,X
	sbiw r26,4+1
	cp r16,r24
	cpc r17,r25
	brsh .L255
	cp r24,r28
	cpc r25,r29
	brsh .L258
	movw r28,r24
.LVL382:
.L258:
	.loc 2 624 0
	movw r26,r12
	ld r30,X+
	ld r31,X
	sbiw r26,1
	add r30,r28
	adc r31,r29
	ld r11,Z
.LVL383:
	.loc 2 625 0
	st Z,__zero_reg__
	.loc 2 626 0
	ld r20,X+
	ld r21,X
	movw r22,r20
	add r22,r16
	adc r23,r17
	movw r24,r14
	call _ZN6StringaSEPKc
.LVL384:
	.loc 2 627 0
	movw r26,r12
	ld r30,X+
	ld r31,X
	add r30,r28
	adc r31,r29
	st Z,r11
.LVL385:
.L255:
.LBE225:
	.loc 2 629 0
	movw r24,r14
/* epilogue start */
	pop r29
	pop r28
.LVL386:
	pop r17
	pop r16
.LVL387:
	pop r15
	pop r14
.LVL388:
	pop r13
	pop r12
.LVL389:
	pop r11
	ret
	.cfi_endproc
.LFE161:
	.size	_ZNK6String9substringEjj, .-_ZNK6String9substringEjj
	.section	.text._ZN6String7replaceEcc,"ax",@progbits
.global	_ZN6String7replaceEcc
	.type	_ZN6String7replaceEcc, @function
_ZN6String7replaceEcc:
.LFB162:
	.loc 2 636 0
	.cfi_startproc
.LVL390:
/* prologue: function */
/* frame size = 0 */
/* stack size = 0 */
.L__stack_usage = 0
.LBB227:
	.loc 2 637 0
	movw r26,r24
	ld r30,X+
	ld r31,X
	sbiw r30,0
	brne .L261
	ret
.LVL391:
.L263:
.LBB228:
	.loc 2 639 0
	cpse r24,r22
	rjmp .L262
	.loc 2 639 0 is_stmt 0 discriminator 1
	st Z,r20
.L262:
	.loc 2 638 0 is_stmt 1 discriminator 2
	adiw r30,1
.LVL392:
.L261:
	.loc 2 638 0 is_stmt 0 discriminator 1
	ld r24,Z
	cpse r24,__zero_reg__
	rjmp .L263
	ret
.LBE228:
.LBE227:
	.cfi_endproc
.LFE162:
	.size	_ZN6String7replaceEcc, .-_ZN6String7replaceEcc
	.section	.text._ZN6String7replaceERKS_S1_,"ax",@progbits
.global	_ZN6String7replaceERKS_S1_
	.type	_ZN6String7replaceERKS_S1_, @function
_ZN6String7replaceERKS_S1_:
.LFB163:
	.loc 2 644 0 is_stmt 1
	.cfi_startproc
.LVL393:
	push r2
.LCFI224:
	.cfi_def_cfa_offset 3
	.cfi_offset 2, -2
	push r3
.LCFI225:
	.cfi_def_cfa_offset 4
	.cfi_offset 3, -3
	push r4
.LCFI226:
	.cfi_def_cfa_offset 5
	.cfi_offset 4, -4
	push r5
.LCFI227:
	.cfi_def_cfa_offset 6
	.cfi_offset 5, -5
	push r6
.LCFI228:
	.cfi_def_cfa_offset 7
	.cfi_offset 6, -6
	push r7
.LCFI229:
	.cfi_def_cfa_offset 8
	.cfi_offset 7, -7
	push r8
.LCFI230:
	.cfi_def_cfa_offset 9
	.cfi_offset 8, -8
	push r9
.LCFI231:
	.cfi_def_cfa_offset 10
	.cfi_offset 9, -9
	push r10
.LCFI232:
	.cfi_def_cfa_offset 11
	.cfi_offset 10, -10
	push r11
.LCFI233:
	.cfi_def_cfa_offset 12
	.cfi_offset 11, -11
	push r12
.LCFI234:
	.cfi_def_cfa_offset 13
	.cfi_offset 12, -12
	push r13
.LCFI235:
	.cfi_def_cfa_offset 14
	.cfi_offset 13, -13
	push r14
.LCFI236:
	.cfi_def_cfa_offset 15
	.cfi_offset 14, -14
	push r15
.LCFI237:
	.cfi_def_cfa_offset 16
	.cfi_offset 15, -15
	push r16
.LCFI238:
	.cfi_def_cfa_offset 17
	.cfi_offset 16, -16
	push r17
.LCFI239:
	.cfi_def_cfa_offset 18
	.cfi_offset 17, -17
	push r28
.LCFI240:
	.cfi_def_cfa_offset 19
	.cfi_offset 28, -18
	push r29
.LCFI241:
	.cfi_def_cfa_offset 20
	.cfi_offset 29, -19
/* prologue: function */
/* frame size = 0 */
/* stack size = 18 */
.L__stack_usage = 18
.LBB229:
	.loc 2 645 0
	movw r30,r24
	ldd r4,Z+4
	ldd r5,Z+5
	cp r4,__zero_reg__
	cpc r5,__zero_reg__
	brne .+2
	rjmp .L267
	.loc 2 645 0 is_stmt 0 discriminator 1
	movw r30,r22
	ldd r6,Z+4
	ldd r7,Z+5
	cp r6,__zero_reg__
	cpc r7,__zero_reg__
	brne .+2
	rjmp .L267
	movw r14,r20
	movw r12,r22
	movw r16,r24
	.loc 2 646 0 is_stmt 1
	movw r30,r20
	ldd r10,Z+4
	ldd r11,Z+5
	sub r10,r6
	sbc r11,r7
.LVL394:
	.loc 2 647 0
	movw r30,r24
	ld r28,Z
	ldd r29,Z+1
.LVL395:
.LBB230:
	.loc 2 649 0
	cp r10,__zero_reg__
	cpc r11,__zero_reg__
	brne .L271
.LVL396:
.L272:
	.loc 2 650 0
	movw r30,r12
	ld r22,Z
	ldd r23,Z+1
	movw r24,r28
	call strstr
.LVL397:
	movw r28,r24
.LVL398:
	or r24,r25
	brne .+2
	rjmp .L267
	.loc 2 651 0
	movw r30,r14
	ld r22,Z
	ldd r23,Z+1
	ldd r20,Z+4
	ldd r21,Z+5
	movw r24,r28
	call memcpy
.LVL399:
	.loc 2 652 0
	movw r30,r14
	ldd r24,Z+4
	ldd r25,Z+5
	add r28,r24
	adc r29,r25
.LVL400:
	rjmp .L272
.L271:
.LBB231:
	.loc 2 654 0
	sbrs r11,7
	rjmp .L274
	movw r8,r28
	rjmp .L275
.L274:
.LBB232:
	.loc 2 668 0
	movw r30,r22
	ld r2,Z
	ldd r3,Z+1
	movw r8,r4
	rjmp .L276
.LVL401:
.L275:
.LBE232:
.LBB233:
	.loc 2 656 0
	movw r30,r12
	ld r22,Z
	ldd r23,Z+1
	movw r24,r8
	call strstr
.LVL402:
	movw r4,r24
.LVL403:
	or r24,r25
	breq .L289
.LBB234:
	.loc 2 657 0
	movw r6,r4
	sub r6,r8
	sbc r7,r9
.LVL404:
	.loc 2 658 0
	movw r20,r6
	movw r22,r8
	movw r24,r28
	call memcpy
.LVL405:
	.loc 2 659 0
	add r28,r6
	adc r29,r7
.LVL406:
	.loc 2 660 0
	movw r30,r14
	ld r22,Z
	ldd r23,Z+1
	ldd r20,Z+4
	ldd r21,Z+5
	movw r24,r28
	call memcpy
.LVL407:
	.loc 2 661 0
	movw r30,r14
	ldd r24,Z+4
	ldd r25,Z+5
	add r28,r24
	adc r29,r25
.LVL408:
	.loc 2 662 0
	movw r30,r12
	ldd r8,Z+4
	ldd r9,Z+5
.LVL409:
	add r8,r4
	adc r9,r5
.LVL410:
	.loc 2 663 0
	movw r30,r16
	ldd r24,Z+4
	ldd r25,Z+5
	add r24,r10
	adc r25,r11
	std Z+5,r25
	std Z+4,r24
	rjmp .L275
.LVL411:
.L289:
.LBE234:
	.loc 2 665 0
	movw r22,r8
	movw r24,r28
/* epilogue start */
.LBE233:
.LBE231:
.LBE230:
.LBE229:
	.loc 2 684 0
	pop r29
	pop r28
.LVL412:
	pop r17
	pop r16
.LVL413:
	pop r15
	pop r14
.LVL414:
	pop r13
	pop r12
.LVL415:
	pop r11
	pop r10
.LVL416:
	pop r9
	pop r8
.LVL417:
	pop r7
	pop r6
	pop r5
	pop r4
.LVL418:
	pop r3
	pop r2
.LBB239:
.LBB238:
.LBB237:
.LBB235:
	.loc 2 665 0
	jmp strcpy
.LVL419:
.L276:
.LBE235:
.LBB236:
	.loc 2 668 0
	movw r22,r2
	movw r24,r28
	call strstr
.LVL420:
	sbiw r24,0
	breq .L290
	.loc 2 669 0
	movw r28,r24
.LVL421:
	add r28,r6
	adc r29,r7
.LVL422:
	.loc 2 670 0
	add r8,r10
	adc r9,r11
.LVL423:
	rjmp .L276
.L290:
	.loc 2 672 0
	cp r8,r4
	cpc r9,r5
	brne .+2
	rjmp .L267
	.loc 2 673 0
	movw r30,r16
	ldd r24,Z+2
	ldd r25,Z+3
.LVL424:
	cp r24,r8
	cpc r25,r9
	brsh .L279
	.loc 2 673 0 is_stmt 0 discriminator 1
	movw r22,r8
	movw r24,r16
	call _ZN6String12changeBufferEj
.LVL425:
	tst r24
	breq .L267
.L279:
	.loc 2 674 0 is_stmt 1
	movw r30,r16
	ldd r20,Z+4
	ldd r21,Z+5
.LVL426:
.L288:
	.loc 2 681 0
	subi r20,1
	sbc r21,__zero_reg__
.LVL427:
	.loc 2 675 0
	sbrc r21,7
	rjmp .L267
	.loc 2 675 0 is_stmt 0 discriminator 1
	movw r22,r12
	movw r24,r16
	call _ZNK6String11lastIndexOfERKS_j
.LVL428:
	movw r28,r24
.LVL429:
	sbrc r25,7
	rjmp .L267
	.loc 2 676 0 is_stmt 1
	movw r30,r16
	ld r24,Z
	ldd r25,Z+1
.LVL430:
	movw r30,r12
	ldd r18,Z+4
	ldd r19,Z+5
	add r18,r28
	adc r19,r29
.LVL431:
	.loc 2 677 0
	add r24,r18
	adc r25,r19
.LVL432:
	movw r30,r16
	ldd r20,Z+4
	ldd r21,Z+5
	sub r20,r18
	sbc r21,r19
	movw r22,r24
	add r24,r10
	adc r25,r11
.LVL433:
	call memmove
.LVL434:
	.loc 2 678 0
	movw r30,r16
	ldd r24,Z+4
	ldd r25,Z+5
	add r24,r10
	adc r25,r11
	std Z+5,r25
	std Z+4,r24
	.loc 2 679 0
	ld r18,Z
	ldd r19,Z+1
	movw r30,r18
	add r30,r24
	adc r31,r25
	st Z,__zero_reg__
	.loc 2 680 0
	movw r30,r16
	ld r24,Z
	ldd r25,Z+1
	movw r30,r14
	ld r22,Z
	ldd r23,Z+1
	ldd r20,Z+4
	ldd r21,Z+5
	add r24,r28
	adc r25,r29
	call memcpy
.LVL435:
	.loc 2 681 0
	movw r20,r28
	rjmp .L288
.LVL436:
.L267:
/* epilogue start */
.LBE236:
.LBE237:
.LBE238:
.LBE239:
	.loc 2 684 0
	pop r29
	pop r28
	pop r17
	pop r16
	pop r15
	pop r14
	pop r13
	pop r12
	pop r11
	pop r10
	pop r9
	pop r8
	pop r7
	pop r6
	pop r5
	pop r4
	pop r3
	pop r2
	ret
	.cfi_endproc
.LFE163:
	.size	_ZN6String7replaceERKS_S1_, .-_ZN6String7replaceERKS_S1_
	.section	.text._ZN6String6removeEjj,"ax",@progbits
.global	_ZN6String6removeEjj
	.type	_ZN6String6removeEjj, @function
_ZN6String6removeEjj:
.LFB165:
	.loc 2 693 0
	.cfi_startproc
.LVL437:
	push r28
.LCFI242:
	.cfi_def_cfa_offset 3
	.cfi_offset 28, -2
	push r29
.LCFI243:
	.cfi_def_cfa_offset 4
	.cfi_offset 29, -3
/* prologue: function */
/* frame size = 0 */
/* stack size = 2 */
.L__stack_usage = 2
.LBB240:
	.loc 2 694 0
	movw r26,r24
	adiw r26,4
	ld r30,X+
	ld r31,X
	sbiw r26,4+1
	cp r22,r30
	cpc r23,r31
	brsh .L291
	.loc 2 695 0
	cp r20,__zero_reg__
	cpc r21,__zero_reg__
	breq .L291
	movw r18,r30
	sub r18,r22
	sbc r19,r23
	cp r20,r18
	cpc r21,r19
	brsh .L293
	movw r18,r20
.L293:
	movw r26,r22
	movw r28,r24
.LVL438:
	.loc 2 697 0
	ld r24,Y
	ldd r25,Y+1
.LVL439:
	.loc 2 698 0
	sub r30,r18
	sbc r31,r19
	std Y+5,r31
	std Y+4,r30
	.loc 2 699 0
	movw r20,r30
	sub r20,r22
	sbc r21,r23
	add r18,r22
	adc r19,r23
.LVL440:
	movw r22,r24
.LVL441:
	add r22,r18
	adc r23,r19
	add r24,r26
	adc r25,r27
.LVL442:
	call strncpy
.LVL443:
	.loc 2 700 0
	ld r30,Y
	ldd r31,Y+1
	ldd r24,Y+4
	ldd r25,Y+5
	add r30,r24
	adc r31,r25
	st Z,__zero_reg__
.LVL444:
.L291:
/* epilogue start */
.LBE240:
	.loc 2 701 0
	pop r29
	pop r28
	ret
	.cfi_endproc
.LFE165:
	.size	_ZN6String6removeEjj, .-_ZN6String6removeEjj
	.section	.text._ZN6String6removeEj,"ax",@progbits
.global	_ZN6String6removeEj
	.type	_ZN6String6removeEj, @function
_ZN6String6removeEj:
.LFB164:
	.loc 2 686 0
	.cfi_startproc
.LVL445:
/* prologue: function */
/* frame size = 0 */
/* stack size = 0 */
.L__stack_usage = 0
	.loc 2 690 0
	ldi r20,lo8(-1)
	ldi r21,lo8(-1)
	jmp _ZN6String6removeEjj
.LVL446:
	.cfi_endproc
.LFE164:
	.size	_ZN6String6removeEj, .-_ZN6String6removeEj
	.section	.text._ZN6String11toLowerCaseEv,"ax",@progbits
.global	_ZN6String11toLowerCaseEv
	.type	_ZN6String11toLowerCaseEv, @function
_ZN6String11toLowerCaseEv:
.LFB166:
	.loc 2 704 0
	.cfi_startproc
.LVL447:
	push r28
.LCFI244:
	.cfi_def_cfa_offset 3
	.cfi_offset 28, -2
	push r29
.LCFI245:
	.cfi_def_cfa_offset 4
	.cfi_offset 29, -3
/* prologue: function */
/* frame size = 0 */
/* stack size = 2 */
.L__stack_usage = 2
.LBB241:
	.loc 2 705 0
	movw r30,r24
	ld r28,Z
	ldd r29,Z+1
	sbiw r28,0
	breq .L298
.LVL448:
.L300:
.LBB242:
	.loc 2 706 0 discriminator 1
	ld r24,Y
	tst r24
	breq .L298
	.loc 2 707 0 discriminator 3
	mov __tmp_reg__,r24
	lsl r0
	sbc r25,r25
	call tolower
.LVL449:
	st Y+,r24
.LVL450:
	rjmp .L300
.LVL451:
.L298:
/* epilogue start */
.LBE242:
.LBE241:
	.loc 2 709 0
	pop r29
	pop r28
	ret
	.cfi_endproc
.LFE166:
	.size	_ZN6String11toLowerCaseEv, .-_ZN6String11toLowerCaseEv
	.section	.text._ZN6String11toUpperCaseEv,"ax",@progbits
.global	_ZN6String11toUpperCaseEv
	.type	_ZN6String11toUpperCaseEv, @function
_ZN6String11toUpperCaseEv:
.LFB167:
	.loc 2 712 0
	.cfi_startproc
.LVL452:
	push r28
.LCFI246:
	.cfi_def_cfa_offset 3
	.cfi_offset 28, -2
	push r29
.LCFI247:
	.cfi_def_cfa_offset 4
	.cfi_offset 29, -3
/* prologue: function */
/* frame size = 0 */
/* stack size = 2 */
.L__stack_usage = 2
.LBB243:
	.loc 2 713 0
	movw r30,r24
	ld r28,Z
	ldd r29,Z+1
	sbiw r28,0
	breq .L305
.LVL453:
.L307:
.LBB244:
	.loc 2 714 0 discriminator 1
	ld r24,Y
	tst r24
	breq .L305
	.loc 2 715 0 discriminator 3
	mov __tmp_reg__,r24
	lsl r0
	sbc r25,r25
	call toupper
.LVL454:
	st Y+,r24
.LVL455:
	rjmp .L307
.LVL456:
.L305:
/* epilogue start */
.LBE244:
.LBE243:
	.loc 2 717 0
	pop r29
	pop r28
	ret
	.cfi_endproc
.LFE167:
	.size	_ZN6String11toUpperCaseEv, .-_ZN6String11toUpperCaseEv
	.section	.text._ZN6String4trimEv,"ax",@progbits
.global	_ZN6String4trimEv
	.type	_ZN6String4trimEv, @function
_ZN6String4trimEv:
.LFB168:
	.loc 2 720 0
	.cfi_startproc
.LVL457:
	push r10
.LCFI248:
	.cfi_def_cfa_offset 3
	.cfi_offset 10, -2
	push r11
.LCFI249:
	.cfi_def_cfa_offset 4
	.cfi_offset 11, -3
	push r12
.LCFI250:
	.cfi_def_cfa_offset 5
	.cfi_offset 12, -4
	push r13
.LCFI251:
	.cfi_def_cfa_offset 6
	.cfi_offset 13, -5
	push r14
.LCFI252:
	.cfi_def_cfa_offset 7
	.cfi_offset 14, -6
	push r15
.LCFI253:
	.cfi_def_cfa_offset 8
	.cfi_offset 15, -7
	push r16
.LCFI254:
	.cfi_def_cfa_offset 9
	.cfi_offset 16, -8
	push r17
.LCFI255:
	.cfi_def_cfa_offset 10
	.cfi_offset 17, -9
	push r28
.LCFI256:
	.cfi_def_cfa_offset 11
	.cfi_offset 28, -10
	push r29
.LCFI257:
	.cfi_def_cfa_offset 12
	.cfi_offset 29, -11
/* prologue: function */
/* frame size = 0 */
/* stack size = 10 */
.L__stack_usage = 10
.LBB245:
	.loc 2 721 0
	movw r26,r24
	ld r12,X+
	ld r13,X
	sbiw r26,1
	cp r12,__zero_reg__
	cpc r13,__zero_reg__
	brne .+2
	rjmp .L312
	.loc 2 721 0 is_stmt 0 discriminator 1
	adiw r26,4
	ld r28,X+
	ld r29,X
	sbiw r26,4+1
	sbiw r28,0
	breq .L312
	movw r16,r24
	movw r10,r12
.LVL458:
.L314:
	movw r14,r10
.LVL459:
	ldi r27,-1
	sub r10,r27
	sbc r11,r27
.LVL460:
	.loc 2 723 0 is_stmt 1 discriminator 1
	movw r30,r14
	ld r24,Z
	mov __tmp_reg__,r24
	lsl r0
	sbc r25,r25
	call isspace
.LVL461:
	or r24,r25
	brne .L314
	.loc 2 724 0
	sbiw r28,1
	add r28,r12
	adc r29,r13
.LVL462:
.L315:
	.loc 2 725 0 discriminator 1
	ld r24,Y
	mov __tmp_reg__,r24
	lsl r0
	sbc r25,r25
	call isspace
.LVL463:
	or r24,r25
	brne .L316
.L320:
	.loc 2 726 0
	movw r20,r28
	subi r20,-1
	sbci r21,-1
	sub r20,r14
	sbc r21,r15
	movw r26,r16
	adiw r26,4+1
	st X,r21
	st -X,r20
	sbiw r26,4
	.loc 2 727 0
	cp r12,r14
	cpc r13,r15
	brsh .L318
	.loc 2 727 0 is_stmt 0 discriminator 1
	movw r22,r14
	movw r24,r12
	call memcpy
.LVL464:
	rjmp .L318
.L316:
	.loc 2 725 0 is_stmt 1 discriminator 2
	cp r28,r14
	cpc r29,r15
	brlo .L320
	.loc 2 725 0 is_stmt 0 discriminator 3
	sbiw r28,1
.LVL465:
	rjmp .L315
.L318:
	.loc 2 728 0 is_stmt 1
	movw r26,r16
	ld r30,X+
	ld r31,X
	sbiw r26,1
	adiw r26,4
	ld r24,X+
	ld r25,X
	sbiw r26,4+1
	add r30,r24
	adc r31,r25
	st Z,__zero_reg__
.LVL466:
.L312:
/* epilogue start */
.LBE245:
	.loc 2 729 0
	pop r29
	pop r28
	pop r17
	pop r16
	pop r15
	pop r14
	pop r13
	pop r12
	pop r11
	pop r10
	ret
	.cfi_endproc
.LFE168:
	.size	_ZN6String4trimEv, .-_ZN6String4trimEv
	.section	.text._ZNK6String5toIntEv,"ax",@progbits
.global	_ZNK6String5toIntEv
	.type	_ZNK6String5toIntEv, @function
_ZNK6String5toIntEv:
.LFB169:
	.loc 2 736 0
	.cfi_startproc
.LVL467:
/* prologue: function */
/* frame size = 0 */
/* stack size = 0 */
.L__stack_usage = 0
	.loc 2 737 0
	movw r30,r24
	ld r24,Z
	ldd r25,Z+1
.LVL468:
	sbiw r24,0
	breq .L329
	.loc 2 737 0 is_stmt 0 discriminator 1
	jmp atol
.LVL469:
.L329:
	.loc 2 739 0 is_stmt 1
	ldi r22,0
	ldi r23,0
	movw r24,r22
	ret
	.cfi_endproc
.LFE169:
	.size	_ZNK6String5toIntEv, .-_ZNK6String5toIntEv
	.section	.text._ZNK6String8toDoubleEv,"ax",@progbits
.global	_ZNK6String8toDoubleEv
	.type	_ZNK6String8toDoubleEv, @function
_ZNK6String8toDoubleEv:
.LFB171:
	.loc 2 747 0
	.cfi_startproc
.LVL470:
/* prologue: function */
/* frame size = 0 */
/* stack size = 0 */
.L__stack_usage = 0
	.loc 2 748 0
	movw r30,r24
	ld r24,Z
	ldd r25,Z+1
.LVL471:
	sbiw r24,0
	breq .L331
	.loc 2 748 0 is_stmt 0 discriminator 1
	jmp atof
.LVL472:
.L331:
	.loc 2 750 0 is_stmt 1
	ldi r22,0
	ldi r23,0
	movw r24,r22
	ret
	.cfi_endproc
.LFE171:
	.size	_ZNK6String8toDoubleEv, .-_ZNK6String8toDoubleEv
	.section	.text._ZNK6String7toFloatEv,"ax",@progbits
.global	_ZNK6String7toFloatEv
	.type	_ZNK6String7toFloatEv, @function
_ZNK6String7toFloatEv:
.LFB170:
	.loc 2 742 0
	.cfi_startproc
.LVL473:
/* prologue: function */
/* frame size = 0 */
/* stack size = 0 */
.L__stack_usage = 0
	.loc 2 743 0
	jmp _ZNK6String8toDoubleEv
.LVL474:
	.cfi_endproc
.LFE170:
	.size	_ZNK6String7toFloatEv, .-_ZNK6String7toFloatEv
	.section	.bss._ZZN6StringixEjE19dummy_writable_char,"aw",@nobits
	.type	_ZZN6StringixEjE19dummy_writable_char, @object
	.size	_ZZN6StringixEjE19dummy_writable_char, 1
_ZZN6StringixEjE19dummy_writable_char:
	.zero	1
	.text
.Letext0:
	.file 5 "/home/yvonne/Downloads/arduino-1.8.5/hardware/tools/avr/avr/include/string.h"
	.file 6 "/home/yvonne/Downloads/arduino-1.8.5/hardware/tools/avr/avr/include/ctype.h"
	.file 7 "/home/yvonne/Downloads/arduino-1.8.5/hardware/tools/avr/lib/gcc/avr/4.9.2/include/stddef.h"
	.file 8 "<built-in>"